(dp1
VPOSTGIS_DROP_TABLE_ERROR
p2
Vv1/POSTGIS_DROP_TABLE_ERROR
p3
sVAPI_LAYER_UNSUPPORTED_ERROR
p4
Vv1/API_LAYER_UNSUPPORTED_ERROR
p5
sS'_version'
p6
V0.14.1
p7
sVAPI_LAYER_UPDATE_ERROR
p8
Vv1/API_LAYER_UPDATE_ERROR
p9
sVAPI_LAYER_PUBLISHED
p10
Vv1/API_LAYER_PUBLISHED
p11
sVAPI_FEATURE_DELETED
p12
Vv1/API_FEATURE_DELETED
p13
sVS3_ERROR
p14
Vv1/S3_ERROR
p15
sVPOSTGIS_LOAD_RECORDS_ERROR
p16
Vv1/POSTGIS_LOAD_RECORDS_ERROR
p17
sVAPI_FEATURE_DELETE_ERROR
p18
Vv1/API_FEATURE_DELETE_ERROR
p19
sVAPI_LAYER_DELETE_ERROR
p20
Vv1/API_LAYER_DELETE_ERROR
p21
sVAPI_FEATURE_UNSUPPORTED_ERROR
p22
Vv1/API_FEATURE_UNSUPPORTED_ERROR
p23
sVAPI_LAYER_UPDATED
p24
Vv1/API_LAYER_UPDATED
p25
sVAPI_LAYER_PUBLISH_ERROR
p26
Vv1/API_LAYER_PUBLISH_ERROR
p27
sVAPI_FEATURE_UPDATED
p28
Vv1/API_FEATURE_UPDATED
p29
sVAPI_FEATURE_PARSE_ERROR
p30
Vv1/API_FEATURE_PARSE_ERROR
p31
sVAPI_FEATURE_PUBLISH_ERROR
p32
Vv1/API_FEATURE_PUBLISH_ERROR
p33
sVGEOSERVER_CREATE_FEATURETYPE_ERROR
p34
Vv1/GEOSERVER_CREATE_FEATURETYPE_ERROR
p35
sVNO_LAYERS_FOUND
p36
Vv1/NO_LAYERS_FOUND
p37
sVAPI_FEATURE_CREATED
p38
Vv1/API_FEATURE_CREATED
p39
sVAPI_FEATURE_UPDATE_ERROR
p40
Vv1/API_FEATURE_UPDATE_ERROR
p41
sVAPI_LAYER_DELETED
p42
Vv1/API_LAYER_DELETED
p43
sVNO_FILES_TO_PROCESS
p44
Vv1/NO_FILES_TO_PROCESS
p45
sVPOSTGIS_CREATE_TABLE_ERROR
p46
Vv1/POSTGIS_CREATE_TABLE_ERROR
p47
sVNOT_A_VALID_SPATIAL_FILE
p48
Vv1/NOT_A_VALID_SPATIAL_FILE
p49
s.