Certificate:
    Data:
        Version: 3 (0x2)
        Serial Number: 268435670 (0x100000d6)
    Signature Algorithm: sha256WithRSAEncryption
        Issuer: C=DE, ST=Hessen, O=privacyidea, CN=CA001
        Validity
            Not Before: Dec  5 07:57:07 2017 GMT
            Not After : Dec  5 07:57:07 2018 GMT
        Subject: OU=realm1, CN=cornelius/emailAddress=user@localhost.localdomain
        Subject Public Key Info:
            Public Key Algorithm: rsaEncryption
                Public-Key: (2048 bit)
                Modulus:
                    00:a4:50:f3:16:25:f7:fc:d5:3a:98:73:3e:ed:2b:
                    a3:10:23:76:22:89:25:6b:6c:59:61:21:fc:9b:18:
                    8e:22:9a:f8:bf:15:c6:9f:81:73:ed:6c:9c:6f:67:
                    50:19:c7:e3:28:38:e2:77:fd:23:42:04:0e:64:09:
                    d8:e1:ef:f5:f6:87:4d:6d:00:17:c8:1c:47:f7:da:
                    76:34:93:ee:82:7e:06:72:32:fd:18:87:94:49:89:
                    ff:b8:45:d3:f6:44:9e:22:f4:af:fe:d1:5f:ae:81:
                    b7:6b:fb:22:9d:7e:dd:39:ee:d4:6a:8f:a4:2b:52:
                    b2:e6:e9:c2:d3:80:83:fd:c6:4b:78:cd:1a:90:18:
                    89:ec:c9:03:fc:b3:20:8f:d2:2e:48:f5:5e:75:0b:
                    f0:a1:53:cb:ca:0f:30:3c:4c:5a:46:2e:7b:95:61:
                    20:1f:c1:de:7d:26:80:5d:69:ff:3c:ab:16:69:4f:
                    ec:0d:21:16:73:98:12:cd:44:64:eb:9e:d2:6f:ee:
                    7a:f0:59:57:e4:e2:99:61:8c:a5:b3:d8:95:66:8a:
                    6f:96:09:e2:24:c1:70:be:cd:0a:eb:a1:b6:a2:dc:
                    a2:1e:cc:36:eb:9a:3b:61:83:72:9c:53:b7:bc:01:
                    31:1c:6c:99:a7:9e:8f:73:4d:a9:50:08:36:f8:78:
                    37:f1
                Exponent: 65537 (0x10001)
        X509v3 extensions:
            X509v3 Key Usage: 
                Digital Signature, Key Encipherment
            X509v3 Basic Constraints: 
                CA:FALSE
            Netscape Cert Type: 
                SSL Server
            Netscape Comment: 
                OpenSSL Generated Server Certificate
            X509v3 Subject Key Identifier: 
                21:4C:0D:E9:71:4D:0F:36:73:A9:1A:A9:8E:29:C6:95:DF:A9:CE:80
            X509v3 Authority Key Identifier: 
                keyid:F4:A7:C0:CC:91:46:AF:64:F3:91:F2:27:F8:C8:B2:6F:8A:87:32:73
                DirName:/C=DE/ST=Hessen/O=privacyidea/CN=CA001
                serial:FB:C8:EB:AC:83:CD:12:07

            X509v3 Extended Key Usage: 
                TLS Web Server Authentication
    Signature Algorithm: sha256WithRSAEncryption
         28:d3:f7:ca:f4:29:03:6f:65:52:bf:7d:dd:26:6e:b3:fe:d7:
         32:41:c7:04:dd:12:1b:62:78:d5:a9:73:f1:c2:49:b9:ac:51:
         1b:80:d4:81:61:f7:d0:f7:96:59:79:1f:43:69:fe:3f:da:7e:
         99:4d:7c:84:9d:4a:9f:8c:e1:4e:d3:9e:12:c0:45:4d:c8:d1:
         fc:50:91:2d:5b:d3:57:75:bd:3b:7e:c9:10:21:40:7d:e2:09:
         fa:0d:c5:4f:eb:3d:04:c4:db:5d:d1:bd:28:17:6b:ec:48:db:
         d0:fa:cb:6e:27:9f:06:12:ad:b0:e6:c5:99:96:86:c5:f7:5a:
         7f:2c:a2:c2:e2:6e:7b:75:a6:28:7b:d7:e5:90:df:73:01:c0:
         d8:f4:43:55:3f:db:f6:e6:7e:25:5d:a9:b5:91:07:e6:be:09:
         e0:1f:b6:48:b5:4b:56:58:fc:b7:b0:7e:fd:36:a1:23:77:c5:
         f3:9f:58:36:fa:80:fd:e2:63:b1:a7:2d:a6:6b:97:b2:fb:13:
         d0:d5:d6:6c:89:17:aa:e9:86:cf:5a:89:29:7c:45:4a:cd:fb:
         01:3e:89:a1:5e:f8:f3:e8:67:32:ef:69:2c:53:b5:e8:a2:e3:
         c1:bd:03:65:1d:54:c0:a1:f9:da:05:0c:84:76:6a:b4:6f:fe:
         cc:95:bb:26
-----BEGIN CERTIFICATE-----
MIIEIjCCAwqgAwIBAgIEEAAA1jANBgkqhkiG9w0BAQsFADBEMQswCQYDVQQGEwJE
RTEPMA0GA1UECAwGSGVzc2VuMRQwEgYDVQQKDAtwcml2YWN5aWRlYTEOMAwGA1UE
AwwFQ0EwMDEwHhcNMTcxMjA1MDc1NzA3WhcNMTgxMjA1MDc1NzA3WjBQMQ8wDQYD
VQQLDAZyZWFsbTExEjAQBgNVBAMMCWNvcm5lbGl1czEpMCcGCSqGSIb3DQEJARYa
dXNlckBsb2NhbGhvc3QubG9jYWxkb21haW4wggEiMA0GCSqGSIb3DQEBAQUAA4IB
DwAwggEKAoIBAQCkUPMWJff81TqYcz7tK6MQI3YiiSVrbFlhIfybGI4imvi/Fcaf
gXPtbJxvZ1AZx+MoOOJ3/SNCBA5kCdjh7/X2h01tABfIHEf32nY0k+6CfgZyMv0Y
h5RJif+4RdP2RJ4i9K/+0V+ugbdr+yKdft057tRqj6QrUrLm6cLTgIP9xkt4zRqQ
GInsyQP8syCP0i5I9V51C/ChU8vKDzA8TFpGLnuVYSAfwd59JoBdaf88qxZpT+wN
IRZzmBLNRGTrntJv7nrwWVfk4plhjKWz2JVmim+WCeIkwXC+zQrrobai3KIezDbr
mjthg3KcU7e8ATEcbJmnno9zTalQCDb4eDfxAgMBAAGjggEOMIIBCjALBgNVHQ8E
BAMCBaAwCQYDVR0TBAIwADARBglghkgBhvhCAQEEBAMCBkAwMwYJYIZIAYb4QgEN
BCYWJE9wZW5TU0wgR2VuZXJhdGVkIFNlcnZlciBDZXJ0aWZpY2F0ZTAdBgNVHQ4E
FgQUIUwN6XFNDzZzqRqpjinGld+pzoAwdAYDVR0jBG0wa4AU9KfAzJFGr2TzkfIn
+Miyb4qHMnOhSKRGMEQxCzAJBgNVBAYTAkRFMQ8wDQYDVQQIDAZIZXNzZW4xFDAS
BgNVBAoMC3ByaXZhY3lpZGVhMQ4wDAYDVQQDDAVDQTAwMYIJAPvI66yDzRIHMBMG
A1UdJQQMMAoGCCsGAQUFBwMBMA0GCSqGSIb3DQEBCwUAA4IBAQAo0/fK9CkDb2VS
v33dJm6z/tcyQccE3RIbYnjVqXPxwkm5rFEbgNSBYffQ95ZZeR9Daf4/2n6ZTXyE
nUqfjOFO054SwEVNyNH8UJEtW9NXdb07fskQIUB94gn6DcVP6z0ExNtd0b0oF2vs
SNvQ+stuJ58GEq2w5sWZlobF91p/LKLC4m57daYoe9flkN9zAcDY9ENVP9v25n4l
Xam1kQfmvgngH7ZItUtWWPy3sH79NqEjd8Xzn1g2+oD94mOxpy2ma5ey+xPQ1dZs
iReq6YbPWokpfEVKzfsBPomhXvjz6Gcy72ksU7XoouPBvQNlHVTAofnaBQyEdmq0
b/7Mlbsm
-----END CERTIFICATE-----
