Certificate:
    Data:
        Version: 3 (0x2)
        Serial Number: 268435671 (0x100000d7)
    Signature Algorithm: sha256WithRSAEncryption
        Issuer: C=DE, ST=Hessen, O=privacyidea, CN=CA001
        Validity
            Not Before: Dec  5 08:04:03 2017 GMT
            Not After : Dec  5 08:04:03 2018 GMT
        Subject: CN=selfservice,CN=user,O=realm1/emailAddress=meine
        Subject Public Key Info:
            Public Key Algorithm: rsaEncryption
                Public-Key: (2048 bit)
                Modulus:
                    00:cf:3c:d4:33:0e:12:c4:e6:da:cd:b6:56:a1:1c:
                    26:bb:26:1c:8a:4a:73:a8:58:8a:b6:1e:b3:8b:99:
                    d2:1d:07:c2:92:89:79:c0:69:d8:c8:df:28:61:98:
                    1e:b3:fe:ae:2b:bd:78:a9:f7:6e:47:dc:a3:a0:16:
                    8c:85:02:c1:4e:92:fd:72:6e:f0:c8:03:29:9b:b8:
                    00:6e:c0:83:95:c8:34:20:36:9c:b3:e5:e4:e6:76:
                    73:a3:1a:ad:40:96:e0:53:54:00:ec:76:79:9a:c6:
                    0d:7e:b6:bd:29:ec:83:f3:cb:89:a4:cb:6c:00:ba:
                    0c:c5:78:0f:ff:69:b8:94:f4:04:70:43:3f:d8:9e:
                    d7:a7:fb:5d:ce:75:8e:da:e7:c4:07:b1:9d:de:6f:
                    88:4b:b6:4d:9a:cf:f9:bc:fa:9f:cd:32:6d:f6:3a:
                    0b:0d:23:42:78:ec:97:42:bf:0e:4d:60:56:e1:d3:
                    02:f2:19:cb:84:57:90:e5:70:a1:a2:83:35:86:e2:
                    da:86:9f:f9:8a:c4:79:b3:52:28:da:cb:bb:34:ca:
                    d3:da:91:4a:cf:8d:76:a2:b2:6b:9b:f9:96:fd:09:
                    2a:da:11:23:4d:f0:cb:d6:b2:b1:0e:12:6c:9a:19:
                    65:98:87:ca:e4:ee:24:ce:44:ac:90:8f:9d:1b:c5:
                    2a:9d
                Exponent: 65537 (0x10001)
        X509v3 extensions:
            X509v3 Key Usage: 
                Digital Signature, Key Encipherment
            X509v3 Basic Constraints: 
                CA:FALSE
            Netscape Cert Type: 
                SSL Server
            Netscape Comment: 
                OpenSSL Generated Server Certificate
            X509v3 Subject Key Identifier: 
                4D:07:90:AD:FF:1D:0D:E7:1A:DD:D6:2E:FA:BA:34:CB:AA:1F:24:C6
            X509v3 Authority Key Identifier: 
                keyid:F4:A7:C0:CC:91:46:AF:64:F3:91:F2:27:F8:C8:B2:6F:8A:87:32:73
                DirName:/C=DE/ST=Hessen/O=privacyidea/CN=CA001
                serial:FB:C8:EB:AC:83:CD:12:07

            X509v3 Extended Key Usage: 
                TLS Web Server Authentication
    Signature Algorithm: sha256WithRSAEncryption
         6f:90:af:b4:76:84:94:29:1e:2d:97:0b:2b:d8:19:81:4a:32:
         8b:d8:76:66:65:a7:2e:7b:28:2d:0e:ca:b4:cc:a9:cb:dd:18:
         05:f5:25:4a:e3:af:bd:41:af:b8:31:0d:e3:13:de:55:1a:1e:
         75:d9:14:42:37:b0:51:64:4b:8d:3c:ce:f9:ec:89:65:c3:bb:
         03:5b:af:0a:7b:5f:19:b7:71:85:15:29:19:60:52:12:25:e1:
         41:50:0b:ec:c1:aa:b3:2e:a7:f4:d1:6c:91:9d:80:47:4d:49:
         ac:26:6a:46:18:64:03:3c:fd:03:8d:77:ac:97:0d:a8:1d:2b:
         2a:cb:b4:9c:02:7d:55:2c:dd:f9:33:20:c1:44:9b:cf:04:7c:
         04:53:74:fb:14:4b:d4:20:9f:fc:eb:d0:c1:84:81:75:aa:2e:
         a5:2e:d9:fe:dc:d9:85:a3:c6:d0:4b:6c:81:7d:8b:6d:b2:8c:
         37:36:7f:3d:4a:46:72:f8:74:72:aa:a3:63:e9:a7:81:0b:19:
         22:6e:8d:14:40:c5:8b:cb:0b:30:13:4b:44:48:7d:16:d3:31:
         b8:1e:f4:62:06:29:da:05:6e:9f:e1:92:10:72:c9:8b:ab:33:
         97:53:44:c6:59:7f:a3:ee:cc:3b:22:c9:05:b5:44:45:d3:00:
         f3:0e:c2:84
-----BEGIN CERTIFICATE-----
MIIEDzCCAvegAwIBAgIEEAAA1zANBgkqhkiG9w0BAQsFADBEMQswCQYDVQQGEwJE
RTEPMA0GA1UECAwGSGVzc2VuMRQwEgYDVQQKDAtwcml2YWN5aWRlYTEOMAwGA1UE
AwwFQ0EwMDEwHhcNMTcxMjA1MDgwNDAzWhcNMTgxMjA1MDgwNDAzWjA9MSUwIwYD
VQQDDBxzZWxmc2VydmljZSxDTj11c2VyLE89cmVhbG0xMRQwEgYJKoZIhvcNAQkB
FgVtZWluZTCCASIwDQYJKoZIhvcNAQEBBQADggEPADCCAQoCggEBAM881DMOEsTm
2s22VqEcJrsmHIpKc6hYirYes4uZ0h0HwpKJecBp2MjfKGGYHrP+riu9eKn3bkfc
o6AWjIUCwU6S/XJu8MgDKZu4AG7Ag5XINCA2nLPl5OZ2c6MarUCW4FNUAOx2eZrG
DX62vSnsg/PLiaTLbAC6DMV4D/9puJT0BHBDP9ie16f7Xc51jtrnxAexnd5viEu2
TZrP+bz6n80ybfY6Cw0jQnjsl0K/Dk1gVuHTAvIZy4RXkOVwoaKDNYbi2oaf+YrE
ebNSKNrLuzTK09qRSs+NdqKya5v5lv0JKtoRI03wy9aysQ4SbJoZZZiHyuTuJM5E
rJCPnRvFKp0CAwEAAaOCAQ4wggEKMAsGA1UdDwQEAwIFoDAJBgNVHRMEAjAAMBEG
CWCGSAGG+EIBAQQEAwIGQDAzBglghkgBhvhCAQ0EJhYkT3BlblNTTCBHZW5lcmF0
ZWQgU2VydmVyIENlcnRpZmljYXRlMB0GA1UdDgQWBBRNB5Ct/x0N5xrd1i76ujTL
qh8kxjB0BgNVHSMEbTBrgBT0p8DMkUavZPOR8if4yLJviocyc6FIpEYwRDELMAkG
A1UEBhMCREUxDzANBgNVBAgMBkhlc3NlbjEUMBIGA1UECgwLcHJpdmFjeWlkZWEx
DjAMBgNVBAMMBUNBMDAxggkA+8jrrIPNEgcwEwYDVR0lBAwwCgYIKwYBBQUHAwEw
DQYJKoZIhvcNAQELBQADggEBAG+Qr7R2hJQpHi2XCyvYGYFKMovYdmZlpy57KC0O
yrTMqcvdGAX1JUrjr71Br7gxDeMT3lUaHnXZFEI3sFFkS408zvnsiWXDuwNbrwp7
Xxm3cYUVKRlgUhIl4UFQC+zBqrMup/TRbJGdgEdNSawmakYYZAM8/QONd6yXDagd
KyrLtJwCfVUs3fkzIMFEm88EfARTdPsUS9Qgn/zr0MGEgXWqLqUu2f7c2YWjxtBL
bIF9i22yjDc2fz1KRnL4dHKqo2Ppp4ELGSJujRRAxYvLCzATS0RIfRbTMbge9GIG
KdoFbp/hkhByyYurM5dTRMZZf6PuzDsiyQW1REXTAPMOwoQ=
-----END CERTIFICATE-----
