Certificate:
    Data:
        Version: 3 (0x2)
        Serial Number: 268435667 (0x100000d3)
    Signature Algorithm: sha256WithRSAEncryption
        Issuer: C=DE, ST=Hessen, O=privacyidea, CN=CA001
        Validity
            Not Before: Dec  5 07:53:43 2017 GMT
            Not After : Dec  5 07:53:43 2018 GMT
        Subject: CN=Steve Test/emailAddress=steve@openssl.org
        Subject Public Key Info:
            Public Key Algorithm: rsaEncryption
                Public-Key: (2048 bit)
                Modulus:
                    00:d2:81:89:20:51:48:0f:73:f4:11:32:24:d5:1f:
                    1c:fd:5c:f5:b6:e6:c5:f0:52:81:dc:d2:af:66:4a:
                    7c:93:31:61:5c:af:d1:6d:06:70:03:60:7c:72:0c:
                    88:dd:49:cd:9e:02:6c:d2:5a:d7:53:0f:f3:da:be:
                    69:64:b5:0f:0c:00:e3:b3:50:47:a3:b3:9b:ba:13:
                    50:d6:58:5a:4b:ab:39:e0:11:ca:0a:27:67:03:78:
                    22:66:6d:92:1e:1b:5c:49:ae:e6:6b:d1:8e:3b:9d:
                    06:d3:c6:ac:4d:53:43:10:ab:e8:96:c1:87:82:97:
                    99:8f:20:d3:99:12:37:31:84:e1:8a:ff:29:03:5f:
                    22:90:3e:7f:9b:e0:20:c1:ad:dc:ae:4c:39:1a:31:
                    96:17:02:8c:b2:d9:b4:0d:20:12:9b:7d:86:54:fd:
                    33:fd:c1:2a:62:46:f8:60:96:cf:6e:01:6f:22:df:
                    13:47:e7:97:ec:05:72:23:a3:62:f8:fa:ef:ac:9c:
                    72:f0:37:cb:2f:37:cf:90:a8:27:51:86:c6:d7:78:
                    08:8f:7e:25:a2:15:70:a2:fb:1c:b6:15:5e:a0:97:
                    8b:81:4c:09:28:8a:27:3b:94:bc:71:db:5b:71:37:
                    9a:2b:16:e0:6f:b5:c9:f5:4b:4f:20:ba:65:cf:af:
                    ad:ad
                Exponent: 65537 (0x10001)
        X509v3 extensions:
            X509v3 Key Usage: 
                Digital Signature, Key Encipherment
            X509v3 Basic Constraints: 
                CA:FALSE
            Netscape Cert Type: 
                SSL Server
            Netscape Comment: 
                OpenSSL Generated Server Certificate
            X509v3 Subject Key Identifier: 
                E5:25:6D:3E:AF:0D:DD:3F:4C:F2:45:19:39:D5:14:DB:7E:9C:C0:AD
            X509v3 Authority Key Identifier: 
                keyid:F4:A7:C0:CC:91:46:AF:64:F3:91:F2:27:F8:C8:B2:6F:8A:87:32:73
                DirName:/C=DE/ST=Hessen/O=privacyidea/CN=CA001
                serial:FB:C8:EB:AC:83:CD:12:07

            X509v3 Extended Key Usage: 
                TLS Web Server Authentication
    Signature Algorithm: sha256WithRSAEncryption
         b4:bf:69:b3:94:64:12:62:fd:2b:81:4c:23:7c:94:86:42:09:
         ff:c0:e3:36:76:e5:06:f5:92:98:b5:97:aa:6f:2b:ce:12:29:
         ec:d2:59:e2:43:77:d3:c4:a4:05:c8:7f:2b:e9:7d:97:fc:92:
         c7:bf:96:d8:8d:90:64:d2:a5:8c:94:2b:d2:42:db:36:86:4d:
         7a:5e:17:30:4a:98:ce:f3:4f:cd:09:90:1d:fc:97:cf:1a:32:
         19:af:3c:76:e1:54:92:3d:61:a3:21:39:cd:25:d7:8b:5f:5a:
         1a:57:15:b3:36:3e:b2:aa:a7:9b:c3:0b:94:79:bb:86:48:cf:
         75:49:2b:99:36:05:a3:39:52:1c:30:0c:ee:4f:ad:af:fa:e6:
         89:d4:72:d9:71:2d:dd:80:c4:ea:64:97:1d:3b:9d:03:22:9d:
         26:28:90:e0:08:7f:3f:66:9a:0a:17:91:ff:c1:47:66:f4:2e:
         d0:60:4e:ad:bc:6a:c1:61:38:2e:c3:19:f5:91:f8:04:e4:94:
         a2:19:d9:8d:f9:cc:ae:29:96:fe:68:38:71:50:a6:90:11:9a:
         9e:25:8d:41:26:2d:ac:ef:ac:df:11:5b:ac:97:04:10:db:41:
         8c:c4:cd:28:0d:21:f7:4d:c4:e7:c5:23:4b:18:30:a3:ac:21:
         1a:4b:88:b7
-----BEGIN CERTIFICATE-----
MIIECTCCAvGgAwIBAgIEEAAA0zANBgkqhkiG9w0BAQsFADBEMQswCQYDVQQGEwJE
RTEPMA0GA1UECAwGSGVzc2VuMRQwEgYDVQQKDAtwcml2YWN5aWRlYTEOMAwGA1UE
AwwFQ0EwMDEwHhcNMTcxMjA1MDc1MzQzWhcNMTgxMjA1MDc1MzQzWjA3MRMwEQYD
VQQDDApTdGV2ZSBUZXN0MSAwHgYJKoZIhvcNAQkBFhFzdGV2ZUBvcGVuc3NsLm9y
ZzCCASIwDQYJKoZIhvcNAQEBBQADggEPADCCAQoCggEBANKBiSBRSA9z9BEyJNUf
HP1c9bbmxfBSgdzSr2ZKfJMxYVyv0W0GcANgfHIMiN1JzZ4CbNJa11MP89q+aWS1
DwwA47NQR6Ozm7oTUNZYWkurOeARygonZwN4ImZtkh4bXEmu5mvRjjudBtPGrE1T
QxCr6JbBh4KXmY8g05kSNzGE4Yr/KQNfIpA+f5vgIMGt3K5MORoxlhcCjLLZtA0g
Ept9hlT9M/3BKmJG+GCWz24BbyLfE0fnl+wFciOjYvj676yccvA3yy83z5CoJ1GG
xtd4CI9+JaIVcKL7HLYVXqCXi4FMCSiKJzuUvHHbW3E3misW4G+1yfVLTyC6Zc+v
ra0CAwEAAaOCAQ4wggEKMAsGA1UdDwQEAwIFoDAJBgNVHRMEAjAAMBEGCWCGSAGG
+EIBAQQEAwIGQDAzBglghkgBhvhCAQ0EJhYkT3BlblNTTCBHZW5lcmF0ZWQgU2Vy
dmVyIENlcnRpZmljYXRlMB0GA1UdDgQWBBTlJW0+rw3dP0zyRRk51RTbfpzArTB0
BgNVHSMEbTBrgBT0p8DMkUavZPOR8if4yLJviocyc6FIpEYwRDELMAkGA1UEBhMC
REUxDzANBgNVBAgMBkhlc3NlbjEUMBIGA1UECgwLcHJpdmFjeWlkZWExDjAMBgNV
BAMMBUNBMDAxggkA+8jrrIPNEgcwEwYDVR0lBAwwCgYIKwYBBQUHAwEwDQYJKoZI
hvcNAQELBQADggEBALS/abOUZBJi/SuBTCN8lIZCCf/A4zZ25Qb1kpi1l6pvK84S
KezSWeJDd9PEpAXIfyvpfZf8kse/ltiNkGTSpYyUK9JC2zaGTXpeFzBKmM7zT80J
kB38l88aMhmvPHbhVJI9YaMhOc0l14tfWhpXFbM2PrKqp5vDC5R5u4ZIz3VJK5k2
BaM5UhwwDO5Pra/65onUctlxLd2AxOpklx07nQMinSYokOAIfz9mmgoXkf/BR2b0
LtBgTq28asFhOC7DGfWR+ATklKIZ2Y35zK4plv5oOHFQppARmp4ljUEmLazvrN8R
W6yXBBDbQYzEzSgNIfdNxOfFI0sYMKOsIRpLiLc=
-----END CERTIFICATE-----
