Certificate:
    Data:
        Version: 3 (0x2)
        Serial Number: 268435664 (0x100000d0)
    Signature Algorithm: sha256WithRSAEncryption
        Issuer: C=DE, ST=Hessen, O=privacyidea, CN=CA001
        Validity
            Not Before: Dec  5 07:52:41 2017 GMT
            Not After : Dec  5 07:52:41 2018 GMT
        Subject: C=DE, ST=Hessen, O=privacyidea, CN=requester.localdomain
        Subject Public Key Info:
            Public Key Algorithm: rsaEncryption
                Public-Key: (2048 bit)
                Modulus:
                    00:cd:be:14:4f:fa:ce:01:3f:42:22:1b:1d:9c:af:
                    dd:92:d2:7f:db:6c:b7:3e:39:43:43:6b:13:03:f1:
                    05:f4:07:74:bc:76:69:28:0b:af:19:8e:d7:fc:e3:
                    cd:c6:58:f2:ca:7f:08:6d:53:fc:07:02:44:24:c6:
                    b4:34:4c:8c:04:fe:33:0e:40:e2:20:ba:02:73:5a:
                    f7:f5:4f:63:6e:cc:c6:b6:df:54:1d:37:39:7d:51:
                    36:26:5f:bd:dc:3f:a8:8b:6b:a2:ae:b6:9d:d6:21:
                    e7:df:41:b8:7a:28:2a:68:48:ca:a8:2d:ed:e1:e9:
                    46:5e:5a:72:6d:b4:84:38:87:91:fd:94:11:0b:28:
                    84:c6:c2:2f:2a:fb:01:f9:36:7a:09:75:d1:33:88:
                    3c:73:41:5b:c8:bf:94:89:70:a1:f0:c0:b9:2e:50:
                    53:1e:b1:17:64:69:f4:2d:81:e0:a9:0d:0e:32:e9:
                    ba:55:8a:85:f1:1b:6f:49:79:b4:7f:88:c3:0d:3e:
                    54:88:9b:3d:1f:38:8c:04:f3:ee:6a:63:2b:f5:c6:
                    db:b4:83:aa:c4:78:41:3a:7d:4b:e1:c8:3e:71:ca:
                    1b:61:59:ea:c6:c4:ca:32:5e:c9:e9:bf:12:29:e6:
                    c6:c3:63:fe:a0:55:da:7a:f1:60:98:4d:26:ed:fa:
                    70:2d
                Exponent: 65537 (0x10001)
        X509v3 extensions:
            X509v3 Key Usage: 
                Digital Signature, Key Encipherment
            X509v3 Basic Constraints: 
                CA:FALSE
            Netscape Cert Type: 
                SSL Server
            Netscape Comment: 
                OpenSSL Generated Server Certificate
            X509v3 Subject Key Identifier: 
                53:3F:ED:5D:09:07:B3:65:7B:AB:45:C9:24:5B:09:77:80:0A:96:ED
            X509v3 Authority Key Identifier: 
                keyid:F4:A7:C0:CC:91:46:AF:64:F3:91:F2:27:F8:C8:B2:6F:8A:87:32:73
                DirName:/C=DE/ST=Hessen/O=privacyidea/CN=CA001
                serial:FB:C8:EB:AC:83:CD:12:07

            X509v3 Extended Key Usage: 
                TLS Web Server Authentication
    Signature Algorithm: sha256WithRSAEncryption
         37:a6:e1:81:c1:69:b5:d1:f4:97:e3:d7:62:65:f1:68:db:e1:
         9e:b9:f7:e4:21:04:e6:99:67:cb:29:8d:09:ba:da:1e:ba:87:
         b6:b2:a1:4c:6c:18:89:2d:ed:0f:40:54:9d:d0:17:ec:f2:a4:
         b0:03:79:5b:13:2b:1e:d9:8c:0d:7a:de:11:ea:4a:01:5e:44:
         63:0e:0f:d4:75:40:bd:34:cf:80:af:40:75:0b:9c:9c:6c:8e:
         37:30:d9:21:f6:13:73:01:33:67:9e:94:cb:4b:16:46:cb:b8:
         2d:a0:e3:b7:22:13:79:74:9a:4c:a5:32:6e:73:62:ab:f8:9e:
         1a:84:fc:46:a9:83:70:12:4b:c2:4b:c7:39:05:59:13:5f:b9:
         02:48:19:07:a4:9e:54:9b:e1:c6:5d:3f:48:fe:ad:cc:96:47:
         c4:e3:36:5e:43:7d:62:c0:0a:51:9d:a1:dd:af:ca:b6:7d:56:
         00:cd:77:76:8c:d2:6b:c2:75:71:12:1f:21:d3:20:b2:d5:37:
         9e:5f:ed:2a:f1:7a:a9:2c:da:32:59:cb:02:c1:43:23:ce:3a:
         91:f1:24:c7:0c:fb:9d:84:53:95:08:cb:d0:19:56:a4:20:ed:
         82:ad:38:a9:b4:1f:bb:45:a9:d3:10:4a:f5:7c:67:1a:ab:8d:
         c5:0f:d2:eb
-----BEGIN CERTIFICATE-----
MIIEJjCCAw6gAwIBAgIEEAAA0DANBgkqhkiG9w0BAQsFADBEMQswCQYDVQQGEwJE
RTEPMA0GA1UECAwGSGVzc2VuMRQwEgYDVQQKDAtwcml2YWN5aWRlYTEOMAwGA1UE
AwwFQ0EwMDEwHhcNMTcxMjA1MDc1MjQxWhcNMTgxMjA1MDc1MjQxWjBUMQswCQYD
VQQGEwJERTEPMA0GA1UECAwGSGVzc2VuMRQwEgYDVQQKDAtwcml2YWN5aWRlYTEe
MBwGA1UEAwwVcmVxdWVzdGVyLmxvY2FsZG9tYWluMIIBIjANBgkqhkiG9w0BAQEF
AAOCAQ8AMIIBCgKCAQEAzb4UT/rOAT9CIhsdnK/dktJ/22y3PjlDQ2sTA/EF9Ad0
vHZpKAuvGY7X/OPNxljyyn8IbVP8BwJEJMa0NEyMBP4zDkDiILoCc1r39U9jbszG
tt9UHTc5fVE2Jl+93D+oi2uirrad1iHn30G4eigqaEjKqC3t4elGXlpybbSEOIeR
/ZQRCyiExsIvKvsB+TZ6CXXRM4g8c0FbyL+UiXCh8MC5LlBTHrEXZGn0LYHgqQ0O
Mum6VYqF8RtvSXm0f4jDDT5UiJs9HziMBPPuamMr9cbbtIOqxHhBOn1L4cg+ccob
YVnqxsTKMl7J6b8SKebGw2P+oFXaevFgmE0m7fpwLQIDAQABo4IBDjCCAQowCwYD
VR0PBAQDAgWgMAkGA1UdEwQCMAAwEQYJYIZIAYb4QgEBBAQDAgZAMDMGCWCGSAGG
+EIBDQQmFiRPcGVuU1NMIEdlbmVyYXRlZCBTZXJ2ZXIgQ2VydGlmaWNhdGUwHQYD
VR0OBBYEFFM/7V0JB7Nle6tFySRbCXeACpbtMHQGA1UdIwRtMGuAFPSnwMyRRq9k
85HyJ/jIsm+KhzJzoUikRjBEMQswCQYDVQQGEwJERTEPMA0GA1UECAwGSGVzc2Vu
MRQwEgYDVQQKDAtwcml2YWN5aWRlYTEOMAwGA1UEAwwFQ0EwMDGCCQD7yOusg80S
BzATBgNVHSUEDDAKBggrBgEFBQcDATANBgkqhkiG9w0BAQsFAAOCAQEAN6bhgcFp
tdH0l+PXYmXxaNvhnrn35CEE5plnyymNCbraHrqHtrKhTGwYiS3tD0BUndAX7PKk
sAN5WxMrHtmMDXreEepKAV5EYw4P1HVAvTTPgK9AdQucnGyONzDZIfYTcwEzZ56U
y0sWRsu4LaDjtyITeXSaTKUybnNiq/ieGoT8RqmDcBJLwkvHOQVZE1+5AkgZB6Se
VJvhxl0/SP6tzJZHxOM2XkN9YsAKUZ2h3a/Ktn1WAM13dozSa8J1cRIfIdMgstU3
nl/tKvF6qSzaMlnLAsFDI846kfEkxwz7nYRTlQjL0BlWpCDtgq04qbQfu0Wp0xBK
9XxnGquNxQ/S6w==
-----END CERTIFICATE-----
