Certificate:
    Data:
        Version: 3 (0x2)
        Serial Number: 268435668 (0x100000d4)
    Signature Algorithm: sha256WithRSAEncryption
        Issuer: C=DE, ST=Hessen, O=privacyidea, CN=CA001
        Validity
            Not Before: Dec  5 07:53:44 2017 GMT
            Not After : Dec 25 07:53:44 2019 GMT
        Subject: CN=Steve Test/emailAddress=steve@openssl.org
        Subject Public Key Info:
            Public Key Algorithm: rsaEncryption
                Public-Key: (2048 bit)
                Modulus:
                    00:d2:81:89:20:51:48:0f:73:f4:11:32:24:d5:1f:
                    1c:fd:5c:f5:b6:e6:c5:f0:52:81:dc:d2:af:66:4a:
                    7c:93:31:61:5c:af:d1:6d:06:70:03:60:7c:72:0c:
                    88:dd:49:cd:9e:02:6c:d2:5a:d7:53:0f:f3:da:be:
                    69:64:b5:0f:0c:00:e3:b3:50:47:a3:b3:9b:ba:13:
                    50:d6:58:5a:4b:ab:39:e0:11:ca:0a:27:67:03:78:
                    22:66:6d:92:1e:1b:5c:49:ae:e6:6b:d1:8e:3b:9d:
                    06:d3:c6:ac:4d:53:43:10:ab:e8:96:c1:87:82:97:
                    99:8f:20:d3:99:12:37:31:84:e1:8a:ff:29:03:5f:
                    22:90:3e:7f:9b:e0:20:c1:ad:dc:ae:4c:39:1a:31:
                    96:17:02:8c:b2:d9:b4:0d:20:12:9b:7d:86:54:fd:
                    33:fd:c1:2a:62:46:f8:60:96:cf:6e:01:6f:22:df:
                    13:47:e7:97:ec:05:72:23:a3:62:f8:fa:ef:ac:9c:
                    72:f0:37:cb:2f:37:cf:90:a8:27:51:86:c6:d7:78:
                    08:8f:7e:25:a2:15:70:a2:fb:1c:b6:15:5e:a0:97:
                    8b:81:4c:09:28:8a:27:3b:94:bc:71:db:5b:71:37:
                    9a:2b:16:e0:6f:b5:c9:f5:4b:4f:20:ba:65:cf:af:
                    ad:ad
                Exponent: 65537 (0x10001)
        X509v3 extensions:
            X509v3 Key Usage: 
                Digital Signature, Key Encipherment
            X509v3 Basic Constraints: 
                CA:FALSE
            Netscape Cert Type: 
                SSL Server
            Netscape Comment: 
                OpenSSL Generated Server Certificate
            X509v3 Subject Key Identifier: 
                E5:25:6D:3E:AF:0D:DD:3F:4C:F2:45:19:39:D5:14:DB:7E:9C:C0:AD
            X509v3 Authority Key Identifier: 
                keyid:F4:A7:C0:CC:91:46:AF:64:F3:91:F2:27:F8:C8:B2:6F:8A:87:32:73
                DirName:/C=DE/ST=Hessen/O=privacyidea/CN=CA001
                serial:FB:C8:EB:AC:83:CD:12:07

            X509v3 Extended Key Usage: 
                TLS Web Server Authentication
    Signature Algorithm: sha256WithRSAEncryption
         b7:6e:24:f3:41:a3:bb:cf:cd:6d:82:f4:22:8b:e5:2b:2c:30:
         30:83:e1:ba:67:d7:a2:68:a7:dc:75:8a:13:20:41:0e:ba:0c:
         fd:20:29:40:3c:8c:92:99:49:a8:25:59:4b:1a:2d:ab:b0:ec:
         91:8c:96:4a:76:7b:10:65:84:cb:79:93:e9:d6:1d:54:a5:a0:
         3e:2e:bf:5b:54:48:dd:70:e3:88:79:26:e3:92:7e:80:10:05:
         83:68:4b:2c:ff:e3:ac:1d:21:65:26:50:b1:71:8f:56:48:22:
         b6:f5:b3:85:1e:59:db:4b:b2:31:49:f5:2d:d4:40:14:79:c0:
         9f:a0:f4:e5:ee:54:25:85:51:e4:f6:c2:bf:e6:df:7f:7a:da:
         b2:03:7e:c3:c1:78:c0:f3:e5:ce:ed:1c:d5:e9:8b:c0:5b:8c:
         5b:df:3a:0e:fc:a6:89:a4:b1:83:9d:5e:0a:af:05:b0:2e:5f:
         9e:d1:17:bd:83:9d:e4:c7:d7:74:1c:74:8f:23:da:a6:01:6c:
         bd:4b:37:ae:3d:86:64:d8:f0:a3:ab:6a:0c:35:6c:87:89:65:
         9d:7b:bc:28:0f:cf:e5:de:3b:f4:20:5b:ea:24:2a:49:2a:76:
         70:90:1d:07:89:75:d1:f9:04:02:96:ae:af:03:af:75:4f:c3:
         1b:c1:75:9f
-----BEGIN CERTIFICATE-----
MIIECTCCAvGgAwIBAgIEEAAA1DANBgkqhkiG9w0BAQsFADBEMQswCQYDVQQGEwJE
RTEPMA0GA1UECAwGSGVzc2VuMRQwEgYDVQQKDAtwcml2YWN5aWRlYTEOMAwGA1UE
AwwFQ0EwMDEwHhcNMTcxMjA1MDc1MzQ0WhcNMTkxMjI1MDc1MzQ0WjA3MRMwEQYD
VQQDDApTdGV2ZSBUZXN0MSAwHgYJKoZIhvcNAQkBFhFzdGV2ZUBvcGVuc3NsLm9y
ZzCCASIwDQYJKoZIhvcNAQEBBQADggEPADCCAQoCggEBANKBiSBRSA9z9BEyJNUf
HP1c9bbmxfBSgdzSr2ZKfJMxYVyv0W0GcANgfHIMiN1JzZ4CbNJa11MP89q+aWS1
DwwA47NQR6Ozm7oTUNZYWkurOeARygonZwN4ImZtkh4bXEmu5mvRjjudBtPGrE1T
QxCr6JbBh4KXmY8g05kSNzGE4Yr/KQNfIpA+f5vgIMGt3K5MORoxlhcCjLLZtA0g
Ept9hlT9M/3BKmJG+GCWz24BbyLfE0fnl+wFciOjYvj676yccvA3yy83z5CoJ1GG
xtd4CI9+JaIVcKL7HLYVXqCXi4FMCSiKJzuUvHHbW3E3misW4G+1yfVLTyC6Zc+v
ra0CAwEAAaOCAQ4wggEKMAsGA1UdDwQEAwIFoDAJBgNVHRMEAjAAMBEGCWCGSAGG
+EIBAQQEAwIGQDAzBglghkgBhvhCAQ0EJhYkT3BlblNTTCBHZW5lcmF0ZWQgU2Vy
dmVyIENlcnRpZmljYXRlMB0GA1UdDgQWBBTlJW0+rw3dP0zyRRk51RTbfpzArTB0
BgNVHSMEbTBrgBT0p8DMkUavZPOR8if4yLJviocyc6FIpEYwRDELMAkGA1UEBhMC
REUxDzANBgNVBAgMBkhlc3NlbjEUMBIGA1UECgwLcHJpdmFjeWlkZWExDjAMBgNV
BAMMBUNBMDAxggkA+8jrrIPNEgcwEwYDVR0lBAwwCgYIKwYBBQUHAwEwDQYJKoZI
hvcNAQELBQADggEBALduJPNBo7vPzW2C9CKL5SssMDCD4bpn16Jop9x1ihMgQQ66
DP0gKUA8jJKZSaglWUsaLauw7JGMlkp2exBlhMt5k+nWHVSloD4uv1tUSN1w44h5
JuOSfoAQBYNoSyz/46wdIWUmULFxj1ZIIrb1s4UeWdtLsjFJ9S3UQBR5wJ+g9OXu
VCWFUeT2wr/m33962rIDfsPBeMDz5c7tHNXpi8BbjFvfOg78pomksYOdXgqvBbAu
X57RF72DneTH13QcdI8j2qYBbL1LN649hmTY8KOragw1bIeJZZ17vCgPz+XeO/Qg
W+okKkkqdnCQHQeJddH5BAKWrq8Dr3VPwxvBdZ8=
-----END CERTIFICATE-----
