Certificate:
    Data:
        Version: 3 (0x2)
        Serial Number: 268435669 (0x100000d5)
    Signature Algorithm: sha256WithRSAEncryption
        Issuer: C=DE, ST=Hessen, O=privacyidea, CN=CA001
        Validity
            Not Before: Dec  5 07:57:06 2017 GMT
            Not After : Dec  5 07:57:06 2018 GMT
        Subject: C=DE, ST=Hessen, O=privacyidea, CN=requester.localdomain
        Subject Public Key Info:
            Public Key Algorithm: rsaEncryption
                Public-Key: (2048 bit)
                Modulus:
                    00:cd:be:14:4f:fa:ce:01:3f:42:22:1b:1d:9c:af:
                    dd:92:d2:7f:db:6c:b7:3e:39:43:43:6b:13:03:f1:
                    05:f4:07:74:bc:76:69:28:0b:af:19:8e:d7:fc:e3:
                    cd:c6:58:f2:ca:7f:08:6d:53:fc:07:02:44:24:c6:
                    b4:34:4c:8c:04:fe:33:0e:40:e2:20:ba:02:73:5a:
                    f7:f5:4f:63:6e:cc:c6:b6:df:54:1d:37:39:7d:51:
                    36:26:5f:bd:dc:3f:a8:8b:6b:a2:ae:b6:9d:d6:21:
                    e7:df:41:b8:7a:28:2a:68:48:ca:a8:2d:ed:e1:e9:
                    46:5e:5a:72:6d:b4:84:38:87:91:fd:94:11:0b:28:
                    84:c6:c2:2f:2a:fb:01:f9:36:7a:09:75:d1:33:88:
                    3c:73:41:5b:c8:bf:94:89:70:a1:f0:c0:b9:2e:50:
                    53:1e:b1:17:64:69:f4:2d:81:e0:a9:0d:0e:32:e9:
                    ba:55:8a:85:f1:1b:6f:49:79:b4:7f:88:c3:0d:3e:
                    54:88:9b:3d:1f:38:8c:04:f3:ee:6a:63:2b:f5:c6:
                    db:b4:83:aa:c4:78:41:3a:7d:4b:e1:c8:3e:71:ca:
                    1b:61:59:ea:c6:c4:ca:32:5e:c9:e9:bf:12:29:e6:
                    c6:c3:63:fe:a0:55:da:7a:f1:60:98:4d:26:ed:fa:
                    70:2d
                Exponent: 65537 (0x10001)
        X509v3 extensions:
            X509v3 Key Usage: 
                Digital Signature, Key Encipherment
            X509v3 Basic Constraints: 
                CA:FALSE
            Netscape Cert Type: 
                SSL Server
            Netscape Comment: 
                OpenSSL Generated Server Certificate
            X509v3 Subject Key Identifier: 
                53:3F:ED:5D:09:07:B3:65:7B:AB:45:C9:24:5B:09:77:80:0A:96:ED
            X509v3 Authority Key Identifier: 
                keyid:F4:A7:C0:CC:91:46:AF:64:F3:91:F2:27:F8:C8:B2:6F:8A:87:32:73
                DirName:/C=DE/ST=Hessen/O=privacyidea/CN=CA001
                serial:FB:C8:EB:AC:83:CD:12:07

            X509v3 Extended Key Usage: 
                TLS Web Server Authentication
    Signature Algorithm: sha256WithRSAEncryption
         b9:28:1e:ea:19:fb:d8:c7:aa:1b:e4:78:49:15:61:3d:36:26:
         be:64:68:95:34:5a:37:1c:5f:4d:b2:93:55:25:40:8c:3a:c1:
         26:45:82:3f:76:d9:f0:8a:5e:40:86:8d:8f:2b:48:ec:04:cd:
         3b:43:c7:d1:3e:da:79:8b:86:86:d3:d6:4e:6f:94:14:4b:68:
         19:d0:96:94:e0:e8:d3:0e:63:2e:4c:ce:17:d9:20:b9:49:a0:
         3c:75:3f:d7:e5:3f:c2:7a:70:fb:f4:1b:8f:35:ec:3b:e8:c0:
         88:9d:ff:47:52:b5:5a:be:f5:42:8e:60:3a:32:91:17:d5:01:
         bd:66:3f:fb:a7:8c:01:b7:98:31:27:61:46:1f:88:a7:18:8e:
         d6:ce:ee:54:96:f5:79:96:53:df:21:c6:e8:6f:a9:dd:a5:b6:
         8c:c2:3c:e8:4d:e8:09:47:80:24:aa:98:01:d6:9f:46:7b:c7:
         1f:fb:71:e6:3f:b5:12:f0:2c:31:60:44:02:ba:be:a5:23:31:
         f7:23:a8:03:5f:fe:fb:f4:d7:f6:16:b6:00:e7:3f:29:a4:4b:
         c2:8f:9b:09:0a:7c:bb:d5:9c:28:bd:4a:bf:81:ff:40:6b:70:
         93:f6:e2:22:3f:a6:0c:37:d1:0e:1f:af:86:2a:27:32:c2:6c:
         58:7f:98:5e
-----BEGIN CERTIFICATE-----
MIIEJjCCAw6gAwIBAgIEEAAA1TANBgkqhkiG9w0BAQsFADBEMQswCQYDVQQGEwJE
RTEPMA0GA1UECAwGSGVzc2VuMRQwEgYDVQQKDAtwcml2YWN5aWRlYTEOMAwGA1UE
AwwFQ0EwMDEwHhcNMTcxMjA1MDc1NzA2WhcNMTgxMjA1MDc1NzA2WjBUMQswCQYD
VQQGEwJERTEPMA0GA1UECAwGSGVzc2VuMRQwEgYDVQQKDAtwcml2YWN5aWRlYTEe
MBwGA1UEAwwVcmVxdWVzdGVyLmxvY2FsZG9tYWluMIIBIjANBgkqhkiG9w0BAQEF
AAOCAQ8AMIIBCgKCAQEAzb4UT/rOAT9CIhsdnK/dktJ/22y3PjlDQ2sTA/EF9Ad0
vHZpKAuvGY7X/OPNxljyyn8IbVP8BwJEJMa0NEyMBP4zDkDiILoCc1r39U9jbszG
tt9UHTc5fVE2Jl+93D+oi2uirrad1iHn30G4eigqaEjKqC3t4elGXlpybbSEOIeR
/ZQRCyiExsIvKvsB+TZ6CXXRM4g8c0FbyL+UiXCh8MC5LlBTHrEXZGn0LYHgqQ0O
Mum6VYqF8RtvSXm0f4jDDT5UiJs9HziMBPPuamMr9cbbtIOqxHhBOn1L4cg+ccob
YVnqxsTKMl7J6b8SKebGw2P+oFXaevFgmE0m7fpwLQIDAQABo4IBDjCCAQowCwYD
VR0PBAQDAgWgMAkGA1UdEwQCMAAwEQYJYIZIAYb4QgEBBAQDAgZAMDMGCWCGSAGG
+EIBDQQmFiRPcGVuU1NMIEdlbmVyYXRlZCBTZXJ2ZXIgQ2VydGlmaWNhdGUwHQYD
VR0OBBYEFFM/7V0JB7Nle6tFySRbCXeACpbtMHQGA1UdIwRtMGuAFPSnwMyRRq9k
85HyJ/jIsm+KhzJzoUikRjBEMQswCQYDVQQGEwJERTEPMA0GA1UECAwGSGVzc2Vu
MRQwEgYDVQQKDAtwcml2YWN5aWRlYTEOMAwGA1UEAwwFQ0EwMDGCCQD7yOusg80S
BzATBgNVHSUEDDAKBggrBgEFBQcDATANBgkqhkiG9w0BAQsFAAOCAQEAuSge6hn7
2MeqG+R4SRVhPTYmvmRolTRaNxxfTbKTVSVAjDrBJkWCP3bZ8IpeQIaNjytI7ATN
O0PH0T7aeYuGhtPWTm+UFEtoGdCWlODo0w5jLkzOF9kguUmgPHU/1+U/wnpw+/Qb
jzXsO+jAiJ3/R1K1Wr71Qo5gOjKRF9UBvWY/+6eMAbeYMSdhRh+IpxiO1s7uVJb1
eZZT3yHG6G+p3aW2jMI86E3oCUeAJKqYAdafRnvHH/tx5j+1EvAsMWBEArq+pSMx
9yOoA1/++/TX9ha2AOc/KaRLwo+bCQp8u9WcKL1Kv4H/QGtwk/biIj+mDDfRDh+v
hionMsJsWH+YXg==
-----END CERTIFICATE-----
