Certificate:
    Data:
        Version: 3 (0x2)
        Serial Number: 268435666 (0x100000d2)
    Signature Algorithm: sha256WithRSAEncryption
        Issuer: C=DE, ST=Hessen, O=privacyidea, CN=CA001
        Validity
            Not Before: Dec  5 07:53:43 2017 GMT
            Not After : Dec  5 07:53:43 2018 GMT
        Subject: C=DE, ST=Hessen, O=privacyidea, CN=usercert
        Subject Public Key Info:
            Public Key Algorithm: rsaEncryption
                Public-Key: (2048 bit)
                Modulus:
                    00:dc:2f:d1:5f:29:97:d4:7c:c3:53:c8:30:bd:4b:
                    67:70:2c:24:6b:b8:5e:eb:21:7a:48:12:56:7c:81:
                    5c:48:75:b6:68:eb:f6:f2:98:4e:50:51:d1:7f:6c:
                    73:f3:0a:a7:ae:be:48:5e:e5:d6:e1:d9:2a:7c:32:
                    6e:4e:fd:08:f6:5a:54:49:23:73:c3:b9:07:18:d1:
                    ef:b3:ac:f8:8a:dc:94:96:a4:90:3a:8e:74:df:e6:
                    0d:37:1b:bd:5b:b7:25:1a:56:39:da:6f:91:aa:5e:
                    1c:74:f3:f9:7c:14:01:83:12:65:76:c7:bb:fe:36:
                    5b:95:e9:72:65:83:ed:3e:98:30:71:fa:87:dd:a3:
                    36:5a:30:03:2e:26:e0:61:d1:bf:02:3f:b6:06:1f:
                    4a:89:28:1c:5c:a2:ff:4e:be:94:e6:8c:e0:da:82:
                    f1:9d:29:32:48:30:73:b4:04:f6:42:1e:be:f7:e2:
                    32:32:27:3c:9d:89:2f:70:3e:85:9a:6f:5c:c5:09:
                    c0:8c:32:2f:72:22:c9:d2:95:1f:b6:ac:72:60:72:
                    b7:82:4d:6b:ce:5b:e3:00:d0:d2:2f:58:c6:e0:10:
                    e5:51:ca:4d:3b:2e:e6:7e:ab:84:d6:56:f1:93:35:
                    a0:93:64:26:81:75:2f:91:b5:16:06:38:0b:db:cc:
                    2d:07
                Exponent: 65537 (0x10001)
        X509v3 extensions:
            X509v3 Key Usage: 
                Digital Signature, Key Encipherment
            X509v3 Basic Constraints: 
                CA:FALSE
            Netscape Cert Type: 
                SSL Server
            Netscape Comment: 
                OpenSSL Generated Server Certificate
            X509v3 Subject Key Identifier: 
                FC:14:D1:F0:4B:8D:00:90:F2:F5:B8:71:9E:4E:97:C3:92:54:AD:0B
            X509v3 Authority Key Identifier: 
                keyid:F4:A7:C0:CC:91:46:AF:64:F3:91:F2:27:F8:C8:B2:6F:8A:87:32:73
                DirName:/C=DE/ST=Hessen/O=privacyidea/CN=CA001
                serial:FB:C8:EB:AC:83:CD:12:07

            X509v3 Extended Key Usage: 
                TLS Web Server Authentication
    Signature Algorithm: sha256WithRSAEncryption
         8e:b3:06:a1:a7:44:65:7c:2c:38:b4:d0:6a:6f:81:59:40:d8:
         2a:59:82:64:77:5d:01:fe:17:89:e1:98:5a:9c:b8:bd:8c:fa:
         da:10:ad:b9:dc:de:32:a0:b0:6f:69:46:23:b5:9f:09:c5:4b:
         57:32:c6:08:77:65:6f:47:3e:c8:48:35:df:5e:b0:be:53:89:
         09:e0:93:ff:92:e7:d0:88:e8:60:27:27:c1:15:df:df:8b:7c:
         4f:61:b0:06:f8:da:d1:eb:f3:dc:88:70:08:90:ca:ab:c5:f3:
         e5:c1:4d:9d:53:e1:d9:7d:3b:0a:6f:d4:81:68:ce:7b:e9:6b:
         bc:35:eb:0e:c0:03:07:e9:43:2d:d9:05:5c:b3:d9:56:a0:ca:
         0e:1d:a3:11:e8:5c:51:c2:88:58:8a:26:c3:29:da:ca:94:11:
         be:f2:6a:6d:35:e6:75:f9:3b:f6:f4:b0:62:44:1d:34:24:15:
         32:d7:30:c8:2a:f2:a3:33:34:08:cc:9b:c2:c9:19:c2:76:d0:
         1f:ed:0e:08:2f:3d:f7:e0:34:c5:01:40:af:29:c9:d1:95:e3:
         9f:56:b8:9d:55:44:80:e7:4a:1c:fe:a6:0f:49:34:a6:97:ab:
         a0:b6:2b:75:a8:87:25:1d:2a:78:2f:30:89:7d:6a:a8:b0:39:
         04:47:07:25
-----BEGIN CERTIFICATE-----
MIIEGTCCAwGgAwIBAgIEEAAA0jANBgkqhkiG9w0BAQsFADBEMQswCQYDVQQGEwJE
RTEPMA0GA1UECAwGSGVzc2VuMRQwEgYDVQQKDAtwcml2YWN5aWRlYTEOMAwGA1UE
AwwFQ0EwMDEwHhcNMTcxMjA1MDc1MzQzWhcNMTgxMjA1MDc1MzQzWjBHMQswCQYD
VQQGEwJERTEPMA0GA1UECAwGSGVzc2VuMRQwEgYDVQQKDAtwcml2YWN5aWRlYTER
MA8GA1UEAwwIdXNlcmNlcnQwggEiMA0GCSqGSIb3DQEBAQUAA4IBDwAwggEKAoIB
AQDcL9FfKZfUfMNTyDC9S2dwLCRruF7rIXpIElZ8gVxIdbZo6/bymE5QUdF/bHPz
Cqeuvkhe5dbh2Sp8Mm5O/Qj2WlRJI3PDuQcY0e+zrPiK3JSWpJA6jnTf5g03G71b
tyUaVjnab5GqXhx08/l8FAGDEmV2x7v+NluV6XJlg+0+mDBx+ofdozZaMAMuJuBh
0b8CP7YGH0qJKBxcov9OvpTmjODagvGdKTJIMHO0BPZCHr734jIyJzydiS9wPoWa
b1zFCcCMMi9yIsnSlR+2rHJgcreCTWvOW+MA0NIvWMbgEOVRyk07LuZ+q4TWVvGT
NaCTZCaBdS+RtRYGOAvbzC0HAgMBAAGjggEOMIIBCjALBgNVHQ8EBAMCBaAwCQYD
VR0TBAIwADARBglghkgBhvhCAQEEBAMCBkAwMwYJYIZIAYb4QgENBCYWJE9wZW5T
U0wgR2VuZXJhdGVkIFNlcnZlciBDZXJ0aWZpY2F0ZTAdBgNVHQ4EFgQU/BTR8EuN
AJDy9bhxnk6Xw5JUrQswdAYDVR0jBG0wa4AU9KfAzJFGr2TzkfIn+Miyb4qHMnOh
SKRGMEQxCzAJBgNVBAYTAkRFMQ8wDQYDVQQIDAZIZXNzZW4xFDASBgNVBAoMC3By
aXZhY3lpZGVhMQ4wDAYDVQQDDAVDQTAwMYIJAPvI66yDzRIHMBMGA1UdJQQMMAoG
CCsGAQUFBwMBMA0GCSqGSIb3DQEBCwUAA4IBAQCOswahp0RlfCw4tNBqb4FZQNgq
WYJkd10B/heJ4ZhanLi9jPraEK253N4yoLBvaUYjtZ8JxUtXMsYId2VvRz7ISDXf
XrC+U4kJ4JP/kufQiOhgJyfBFd/fi3xPYbAG+NrR6/PciHAIkMqrxfPlwU2dU+HZ
fTsKb9SBaM576Wu8NesOwAMH6UMt2QVcs9lWoMoOHaMR6FxRwohYiibDKdrKlBG+
8mptNeZ1+Tv29LBiRB00JBUy1zDIKvKjMzQIzJvCyRnCdtAf7Q4ILz334DTFAUCv
KcnRleOfVridVUSA50oc/qYPSTSml6ugtit1qIclHSp4LzCJfWqosDkERwcl
-----END CERTIFICATE-----
