Certificate:
    Data:
        Version: 3 (0x2)
        Serial Number: 268435665 (0x100000d1)
    Signature Algorithm: sha256WithRSAEncryption
        Issuer: C=DE, ST=Hessen, O=privacyidea, CN=CA001
        Validity
            Not Before: Dec  5 07:53:43 2017 GMT
            Not After : Dec  5 07:53:43 2018 GMT
        Subject: C=DE, ST=Hessen, O=privacyidea, CN=requester.localdomain
        Subject Public Key Info:
            Public Key Algorithm: rsaEncryption
                Public-Key: (2048 bit)
                Modulus:
                    00:cd:be:14:4f:fa:ce:01:3f:42:22:1b:1d:9c:af:
                    dd:92:d2:7f:db:6c:b7:3e:39:43:43:6b:13:03:f1:
                    05:f4:07:74:bc:76:69:28:0b:af:19:8e:d7:fc:e3:
                    cd:c6:58:f2:ca:7f:08:6d:53:fc:07:02:44:24:c6:
                    b4:34:4c:8c:04:fe:33:0e:40:e2:20:ba:02:73:5a:
                    f7:f5:4f:63:6e:cc:c6:b6:df:54:1d:37:39:7d:51:
                    36:26:5f:bd:dc:3f:a8:8b:6b:a2:ae:b6:9d:d6:21:
                    e7:df:41:b8:7a:28:2a:68:48:ca:a8:2d:ed:e1:e9:
                    46:5e:5a:72:6d:b4:84:38:87:91:fd:94:11:0b:28:
                    84:c6:c2:2f:2a:fb:01:f9:36:7a:09:75:d1:33:88:
                    3c:73:41:5b:c8:bf:94:89:70:a1:f0:c0:b9:2e:50:
                    53:1e:b1:17:64:69:f4:2d:81:e0:a9:0d:0e:32:e9:
                    ba:55:8a:85:f1:1b:6f:49:79:b4:7f:88:c3:0d:3e:
                    54:88:9b:3d:1f:38:8c:04:f3:ee:6a:63:2b:f5:c6:
                    db:b4:83:aa:c4:78:41:3a:7d:4b:e1:c8:3e:71:ca:
                    1b:61:59:ea:c6:c4:ca:32:5e:c9:e9:bf:12:29:e6:
                    c6:c3:63:fe:a0:55:da:7a:f1:60:98:4d:26:ed:fa:
                    70:2d
                Exponent: 65537 (0x10001)
        X509v3 extensions:
            X509v3 Key Usage: 
                Digital Signature, Key Encipherment
            X509v3 Basic Constraints: 
                CA:FALSE
            Netscape Cert Type: 
                SSL Server
            Netscape Comment: 
                OpenSSL Generated Server Certificate
            X509v3 Subject Key Identifier: 
                53:3F:ED:5D:09:07:B3:65:7B:AB:45:C9:24:5B:09:77:80:0A:96:ED
            X509v3 Authority Key Identifier: 
                keyid:F4:A7:C0:CC:91:46:AF:64:F3:91:F2:27:F8:C8:B2:6F:8A:87:32:73
                DirName:/C=DE/ST=Hessen/O=privacyidea/CN=CA001
                serial:FB:C8:EB:AC:83:CD:12:07

            X509v3 Extended Key Usage: 
                TLS Web Server Authentication
    Signature Algorithm: sha256WithRSAEncryption
         14:c1:fd:c6:51:a7:1b:eb:09:42:31:e2:d6:c1:60:ac:3f:57:
         03:ce:1d:06:55:5a:e1:b8:ea:f8:95:d7:84:ff:c6:3b:e1:0f:
         83:bc:4c:57:6c:9d:f6:2c:4b:3f:ff:43:df:bb:10:28:a7:1b:
         dd:fa:3a:b8:ad:c2:c3:91:2d:c0:12:64:ec:0e:ea:6e:d6:45:
         42:f2:ab:a3:5b:16:7c:38:a5:f9:c8:19:7d:88:d0:3d:b5:e5:
         0c:32:30:35:0f:5f:6d:b7:aa:8b:51:e6:8f:59:3d:6c:9c:09:
         39:b2:0e:cd:c1:bd:a8:64:ba:ad:df:c6:7b:75:5d:48:85:05:
         34:f6:13:b3:01:df:c3:d3:b1:36:11:93:09:85:a6:42:89:72:
         a9:6d:a2:05:79:64:e2:dc:06:0d:83:2b:db:2e:5f:df:dd:fc:
         8d:a5:f4:54:45:10:be:4c:7c:a2:67:7f:28:82:27:5d:49:98:
         df:39:08:d8:f9:ee:a1:33:78:8a:d6:11:08:69:35:ca:de:59:
         d9:f4:2b:5b:7c:6c:ef:cb:78:11:d6:31:5c:82:bc:e3:c1:d7:
         2a:ec:5e:f0:c4:15:33:24:3b:d3:a5:f3:a6:68:42:54:45:c8:
         7d:ea:fe:b2:13:c8:e3:be:ca:9e:ea:08:b3:06:e3:25:ca:4e:
         42:46:b3:72
-----BEGIN CERTIFICATE-----
MIIEJjCCAw6gAwIBAgIEEAAA0TANBgkqhkiG9w0BAQsFADBEMQswCQYDVQQGEwJE
RTEPMA0GA1UECAwGSGVzc2VuMRQwEgYDVQQKDAtwcml2YWN5aWRlYTEOMAwGA1UE
AwwFQ0EwMDEwHhcNMTcxMjA1MDc1MzQzWhcNMTgxMjA1MDc1MzQzWjBUMQswCQYD
VQQGEwJERTEPMA0GA1UECAwGSGVzc2VuMRQwEgYDVQQKDAtwcml2YWN5aWRlYTEe
MBwGA1UEAwwVcmVxdWVzdGVyLmxvY2FsZG9tYWluMIIBIjANBgkqhkiG9w0BAQEF
AAOCAQ8AMIIBCgKCAQEAzb4UT/rOAT9CIhsdnK/dktJ/22y3PjlDQ2sTA/EF9Ad0
vHZpKAuvGY7X/OPNxljyyn8IbVP8BwJEJMa0NEyMBP4zDkDiILoCc1r39U9jbszG
tt9UHTc5fVE2Jl+93D+oi2uirrad1iHn30G4eigqaEjKqC3t4elGXlpybbSEOIeR
/ZQRCyiExsIvKvsB+TZ6CXXRM4g8c0FbyL+UiXCh8MC5LlBTHrEXZGn0LYHgqQ0O
Mum6VYqF8RtvSXm0f4jDDT5UiJs9HziMBPPuamMr9cbbtIOqxHhBOn1L4cg+ccob
YVnqxsTKMl7J6b8SKebGw2P+oFXaevFgmE0m7fpwLQIDAQABo4IBDjCCAQowCwYD
VR0PBAQDAgWgMAkGA1UdEwQCMAAwEQYJYIZIAYb4QgEBBAQDAgZAMDMGCWCGSAGG
+EIBDQQmFiRPcGVuU1NMIEdlbmVyYXRlZCBTZXJ2ZXIgQ2VydGlmaWNhdGUwHQYD
VR0OBBYEFFM/7V0JB7Nle6tFySRbCXeACpbtMHQGA1UdIwRtMGuAFPSnwMyRRq9k
85HyJ/jIsm+KhzJzoUikRjBEMQswCQYDVQQGEwJERTEPMA0GA1UECAwGSGVzc2Vu
MRQwEgYDVQQKDAtwcml2YWN5aWRlYTEOMAwGA1UEAwwFQ0EwMDGCCQD7yOusg80S
BzATBgNVHSUEDDAKBggrBgEFBQcDATANBgkqhkiG9w0BAQsFAAOCAQEAFMH9xlGn
G+sJQjHi1sFgrD9XA84dBlVa4bjq+JXXhP/GO+EPg7xMV2yd9ixLP/9D37sQKKcb
3fo6uK3Cw5EtwBJk7A7qbtZFQvKro1sWfDil+cgZfYjQPbXlDDIwNQ9fbbeqi1Hm
j1k9bJwJObIOzcG9qGS6rd/Ge3VdSIUFNPYTswHfw9OxNhGTCYWmQolyqW2iBXlk
4twGDYMr2y5f3938jaX0VEUQvkx8omd/KIInXUmY3zkI2PnuoTN4itYRCGk1yt5Z
2fQrW3xs78t4EdYxXIK848HXKuxe8MQVMyQ706XzpmhCVEXIfer+shPI477KnuoI
swbjJcpOQkazcg==
-----END CERTIFICATE-----
