(dp1
VAPI_FEATURE_UPDATED
p2
Vv1/API_FEATURE_UPDATED
p3
sVPOSTGIS_DROP_TABLE_ERROR
p4
Vv1/POSTGIS_DROP_TABLE_ERROR
p5
sVAPI_LAYER_UNSUPPORTED_ERROR
p6
Vv1/API_LAYER_UNSUPPORTED_ERROR
p7
sS'_version'
p8
V0.14.2
p9
sVGEOSERVER_LAYER_DELETED
p10
Vv1/GEOSERVER_LAYER_DELETED
p11
sVGEOSERVER_CREATE_WORKSPACE_ERROR
p12
Vv1/GEOSERVER_CREATE_WORKSPACE_ERROR
p13
sVGEOSERVER_DATASTORE_UNAVAILABLE
p14
Vv1/GEOSERVER_DATASTORE_UNAVAILABLE
p15
sVAPI_LAYER_UPDATE_ERROR
p16
Vv1/API_LAYER_UPDATE_ERROR
p17
sVAPI_LAYER_PUBLISHED
p18
Vv1/API_LAYER_PUBLISHED
p19
sVAPI_FEATURE_DELETED
p20
Vv1/API_FEATURE_DELETED
p21
sVGEOSERVER_INVALID_NAME_ERROR
p22
Vv1/GEOSERVER_INVALID_NAME_ERROR
p23
sVS3_ERROR
p24
Vv1/S3_ERROR
p25
sVPOSTGIS_LOAD_RECORDS_ERROR
p26
Vv1/POSTGIS_LOAD_RECORDS_ERROR
p27
sVAPI_FEATURE_DELETE_ERROR
p28
Vv1/API_FEATURE_DELETE_ERROR
p29
sVAPI_LAYER_DELETE_ERROR
p30
Vv1/API_LAYER_DELETE_ERROR
p31
sVAPI_FEATURE_PUBLISH_ERROR
p32
Vv1/API_FEATURE_PUBLISH_ERROR
p33
sVGEOSERVER_UNAVAILABLE
p34
Vv1/GEOSERVER_UNAVAILABLE
p35
sVSIO_MISMATCHED_GEOMETERY_TYPE_ERROR
p36
Vv1/SIO_MISMATCHED_GEOMETERY_TYPE_ERROR
p37
sVAPI_LAYER_UPDATED
p38
Vv1/API_LAYER_UPDATED
p39
sVAPI_LAYER_PUBLISH_ERROR
p40
Vv1/API_LAYER_PUBLISH_ERROR
p41
sVGEOSERVER_DELETE_FEATURETYPE_ERROR
p42
Vv1/GEOSERVER_DELETE_FEATURETYPE_ERROR
p43
sVGEOSERVER_WORKSPACE_UNAVAILABLE
p44
Vv1/GEOSERVER_WORKSPACE_UNAVAILABLE
p45
sVGEOSERVER_LAYER_PUBLISHED
p46
Vv1/GEOSERVER_LAYER_PUBLISHED
p47
sVAPI_FEATURE_PARSE_ERROR
p48
Vv1/API_FEATURE_PARSE_ERROR
p49
sVGEOSERVER_CREATE_DATASTORE_ERROR
p50
Vv1/GEOSERVER_CREATE_DATASTORE_ERROR
p51
sVAPI_FEATURE_UNSUPPORTED_ERROR
p52
Vv1/API_FEATURE_UNSUPPORTED_ERROR
p53
sVGEOSERVER_LAYER_UPDATED
p54
Vv1/GEOSERVER_LAYER_UPDATED
p55
sVGEOSERVER_UPDATE_FEATURETYPE_ERROR
p56
Vv1/GEOSERVER_UPDATE_FEATURETYPE_ERROR
p57
sVGEOSERVER_CREATE_FEATURETYPE_ERROR
p58
Vv1/GEOSERVER_CREATE_FEATURETYPE_ERROR
p59
sVSIO_MISSING_PROJECTION_ERROR
p60
Vv1/SIO_MISSING_PROJECTION_ERROR
p61
sVNO_LAYERS_FOUND
p62
Vv1/NO_LAYERS_FOUND
p63
sVAPI_FEATURE_CREATED
p64
Vv1/API_FEATURE_CREATED
p65
sVAPI_FEATURE_UPDATE_ERROR
p66
Vv1/API_FEATURE_UPDATE_ERROR
p67
sVAPI_LAYER_DELETED
p68
Vv1/API_LAYER_DELETED
p69
sVNO_FILES_TO_PROCESS
p70
Vv1/NO_FILES_TO_PROCESS
p71
sVPOSTGIS_CREATE_TABLE_ERROR
p72
Vv1/POSTGIS_CREATE_TABLE_ERROR
p73
sVNOT_A_VALID_SPATIAL_FILE
p74
Vv1/NOT_A_VALID_SPATIAL_FILE
p75
s.