Certificate:
    Data:
        Version: 3 (0x2)
        Serial Number: 268435667 (0x100000d3)
    Signature Algorithm: sha256WithRSAEncryption
        Issuer: C=DE, ST=Hessen, O=privacyidea, CN=CA001
        Validity
            Not Before: Dec 19 20:23:07 2017 GMT
            Not After : Dec 19 20:23:07 2018 GMT
        Subject: CN=Steve Test/emailAddress=steve@openssl.org
        Subject Public Key Info:
            Public Key Algorithm: rsaEncryption
                Public-Key: (2048 bit)
                Modulus:
                    00:d2:81:89:20:51:48:0f:73:f4:11:32:24:d5:1f:
                    1c:fd:5c:f5:b6:e6:c5:f0:52:81:dc:d2:af:66:4a:
                    7c:93:31:61:5c:af:d1:6d:06:70:03:60:7c:72:0c:
                    88:dd:49:cd:9e:02:6c:d2:5a:d7:53:0f:f3:da:be:
                    69:64:b5:0f:0c:00:e3:b3:50:47:a3:b3:9b:ba:13:
                    50:d6:58:5a:4b:ab:39:e0:11:ca:0a:27:67:03:78:
                    22:66:6d:92:1e:1b:5c:49:ae:e6:6b:d1:8e:3b:9d:
                    06:d3:c6:ac:4d:53:43:10:ab:e8:96:c1:87:82:97:
                    99:8f:20:d3:99:12:37:31:84:e1:8a:ff:29:03:5f:
                    22:90:3e:7f:9b:e0:20:c1:ad:dc:ae:4c:39:1a:31:
                    96:17:02:8c:b2:d9:b4:0d:20:12:9b:7d:86:54:fd:
                    33:fd:c1:2a:62:46:f8:60:96:cf:6e:01:6f:22:df:
                    13:47:e7:97:ec:05:72:23:a3:62:f8:fa:ef:ac:9c:
                    72:f0:37:cb:2f:37:cf:90:a8:27:51:86:c6:d7:78:
                    08:8f:7e:25:a2:15:70:a2:fb:1c:b6:15:5e:a0:97:
                    8b:81:4c:09:28:8a:27:3b:94:bc:71:db:5b:71:37:
                    9a:2b:16:e0:6f:b5:c9:f5:4b:4f:20:ba:65:cf:af:
                    ad:ad
                Exponent: 65537 (0x10001)
        X509v3 extensions:
            X509v3 Key Usage: 
                Digital Signature, Key Encipherment
            X509v3 Basic Constraints: 
                CA:FALSE
            Netscape Cert Type: 
                SSL Server
            Netscape Comment: 
                OpenSSL Generated Server Certificate
            X509v3 Subject Key Identifier: 
                E5:25:6D:3E:AF:0D:DD:3F:4C:F2:45:19:39:D5:14:DB:7E:9C:C0:AD
            X509v3 Authority Key Identifier: 
                keyid:F4:A7:C0:CC:91:46:AF:64:F3:91:F2:27:F8:C8:B2:6F:8A:87:32:73
                DirName:/C=DE/ST=Hessen/O=privacyidea/CN=CA001
                serial:FB:C8:EB:AC:83:CD:12:07

            X509v3 Extended Key Usage: 
                TLS Web Server Authentication
    Signature Algorithm: sha256WithRSAEncryption
         3f:61:09:0b:44:cb:5e:42:ab:e7:89:8d:67:2a:d8:3c:cb:2a:
         c0:8e:c3:ba:27:b6:2c:24:11:9e:5a:2c:bc:4e:7a:5e:d5:f6:
         ed:a9:f3:b2:d3:26:44:e3:3f:45:ba:7e:6b:3a:fe:96:99:82:
         3f:53:d1:33:01:4f:39:94:b6:9a:03:24:57:83:55:7f:a5:c4:
         20:80:54:fd:88:50:b9:ee:2c:35:9a:b2:1d:b8:c7:9f:e6:91:
         17:f2:11:5d:53:bd:97:cd:f6:d1:ab:ef:70:61:d9:ec:ba:00:
         a8:0f:00:cd:50:41:6e:6c:17:0d:73:31:1c:a1:e1:f1:d9:de:
         75:a3:b9:d8:63:bb:5b:6f:56:1a:46:58:52:68:79:a6:1c:c2:
         e3:5f:0f:88:c5:65:ce:e6:1a:f6:21:32:05:3c:03:13:15:63:
         7e:1d:09:02:5e:0d:d4:40:54:4a:e8:47:53:af:65:ae:ea:72:
         98:38:8f:f3:bc:4e:23:07:27:e0:d9:fa:ab:ca:2b:6b:ac:56:
         58:2b:17:0d:b7:39:52:a5:03:dd:4c:17:dd:60:d9:6b:ee:67:
         d4:73:ca:e6:e9:2d:90:55:57:3c:14:87:1e:b7:bb:93:fb:80:
         e6:2f:14:ed:bd:93:80:4c:3c:77:25:1a:18:96:3d:99:8b:45:
         9c:09:84:5f
-----BEGIN CERTIFICATE-----
MIIECTCCAvGgAwIBAgIEEAAA0zANBgkqhkiG9w0BAQsFADBEMQswCQYDVQQGEwJE
RTEPMA0GA1UECAwGSGVzc2VuMRQwEgYDVQQKDAtwcml2YWN5aWRlYTEOMAwGA1UE
AwwFQ0EwMDEwHhcNMTcxMjE5MjAyMzA3WhcNMTgxMjE5MjAyMzA3WjA3MRMwEQYD
VQQDDApTdGV2ZSBUZXN0MSAwHgYJKoZIhvcNAQkBFhFzdGV2ZUBvcGVuc3NsLm9y
ZzCCASIwDQYJKoZIhvcNAQEBBQADggEPADCCAQoCggEBANKBiSBRSA9z9BEyJNUf
HP1c9bbmxfBSgdzSr2ZKfJMxYVyv0W0GcANgfHIMiN1JzZ4CbNJa11MP89q+aWS1
DwwA47NQR6Ozm7oTUNZYWkurOeARygonZwN4ImZtkh4bXEmu5mvRjjudBtPGrE1T
QxCr6JbBh4KXmY8g05kSNzGE4Yr/KQNfIpA+f5vgIMGt3K5MORoxlhcCjLLZtA0g
Ept9hlT9M/3BKmJG+GCWz24BbyLfE0fnl+wFciOjYvj676yccvA3yy83z5CoJ1GG
xtd4CI9+JaIVcKL7HLYVXqCXi4FMCSiKJzuUvHHbW3E3misW4G+1yfVLTyC6Zc+v
ra0CAwEAAaOCAQ4wggEKMAsGA1UdDwQEAwIFoDAJBgNVHRMEAjAAMBEGCWCGSAGG
+EIBAQQEAwIGQDAzBglghkgBhvhCAQ0EJhYkT3BlblNTTCBHZW5lcmF0ZWQgU2Vy
dmVyIENlcnRpZmljYXRlMB0GA1UdDgQWBBTlJW0+rw3dP0zyRRk51RTbfpzArTB0
BgNVHSMEbTBrgBT0p8DMkUavZPOR8if4yLJviocyc6FIpEYwRDELMAkGA1UEBhMC
REUxDzANBgNVBAgMBkhlc3NlbjEUMBIGA1UECgwLcHJpdmFjeWlkZWExDjAMBgNV
BAMMBUNBMDAxggkA+8jrrIPNEgcwEwYDVR0lBAwwCgYIKwYBBQUHAwEwDQYJKoZI
hvcNAQELBQADggEBAD9hCQtEy15Cq+eJjWcq2DzLKsCOw7ontiwkEZ5aLLxOel7V
9u2p87LTJkTjP0W6fms6/paZgj9T0TMBTzmUtpoDJFeDVX+lxCCAVP2IULnuLDWa
sh24x5/mkRfyEV1TvZfN9tGr73Bh2ey6AKgPAM1QQW5sFw1zMRyh4fHZ3nWjudhj
u1tvVhpGWFJoeaYcwuNfD4jFZc7mGvYhMgU8AxMVY34dCQJeDdRAVEroR1OvZa7q
cpg4j/O8TiMHJ+DZ+qvKK2usVlgrFw23OVKlA91MF91g2WvuZ9RzyubpLZBVVzwU
hx63u5P7gOYvFO29k4BMPHclGhiWPZmLRZwJhF8=
-----END CERTIFICATE-----
