Certificate:
    Data:
        Version: 3 (0x2)
        Serial Number: 268435668 (0x100000d4)
    Signature Algorithm: sha256WithRSAEncryption
        Issuer: C=DE, ST=Hessen, O=privacyidea, CN=CA001
        Validity
            Not Before: Dec 19 20:23:07 2017 GMT
            Not After : Jan  8 20:23:07 2020 GMT
        Subject: CN=Steve Test/emailAddress=steve@openssl.org
        Subject Public Key Info:
            Public Key Algorithm: rsaEncryption
                Public-Key: (2048 bit)
                Modulus:
                    00:d2:81:89:20:51:48:0f:73:f4:11:32:24:d5:1f:
                    1c:fd:5c:f5:b6:e6:c5:f0:52:81:dc:d2:af:66:4a:
                    7c:93:31:61:5c:af:d1:6d:06:70:03:60:7c:72:0c:
                    88:dd:49:cd:9e:02:6c:d2:5a:d7:53:0f:f3:da:be:
                    69:64:b5:0f:0c:00:e3:b3:50:47:a3:b3:9b:ba:13:
                    50:d6:58:5a:4b:ab:39:e0:11:ca:0a:27:67:03:78:
                    22:66:6d:92:1e:1b:5c:49:ae:e6:6b:d1:8e:3b:9d:
                    06:d3:c6:ac:4d:53:43:10:ab:e8:96:c1:87:82:97:
                    99:8f:20:d3:99:12:37:31:84:e1:8a:ff:29:03:5f:
                    22:90:3e:7f:9b:e0:20:c1:ad:dc:ae:4c:39:1a:31:
                    96:17:02:8c:b2:d9:b4:0d:20:12:9b:7d:86:54:fd:
                    33:fd:c1:2a:62:46:f8:60:96:cf:6e:01:6f:22:df:
                    13:47:e7:97:ec:05:72:23:a3:62:f8:fa:ef:ac:9c:
                    72:f0:37:cb:2f:37:cf:90:a8:27:51:86:c6:d7:78:
                    08:8f:7e:25:a2:15:70:a2:fb:1c:b6:15:5e:a0:97:
                    8b:81:4c:09:28:8a:27:3b:94:bc:71:db:5b:71:37:
                    9a:2b:16:e0:6f:b5:c9:f5:4b:4f:20:ba:65:cf:af:
                    ad:ad
                Exponent: 65537 (0x10001)
        X509v3 extensions:
            X509v3 Key Usage: 
                Digital Signature, Key Encipherment
            X509v3 Basic Constraints: 
                CA:FALSE
            Netscape Cert Type: 
                SSL Server
            Netscape Comment: 
                OpenSSL Generated Server Certificate
            X509v3 Subject Key Identifier: 
                E5:25:6D:3E:AF:0D:DD:3F:4C:F2:45:19:39:D5:14:DB:7E:9C:C0:AD
            X509v3 Authority Key Identifier: 
                keyid:F4:A7:C0:CC:91:46:AF:64:F3:91:F2:27:F8:C8:B2:6F:8A:87:32:73
                DirName:/C=DE/ST=Hessen/O=privacyidea/CN=CA001
                serial:FB:C8:EB:AC:83:CD:12:07

            X509v3 Extended Key Usage: 
                TLS Web Server Authentication
    Signature Algorithm: sha256WithRSAEncryption
         c0:8f:7f:8c:34:a7:af:de:fc:01:8c:0b:d8:5f:75:d7:f2:90:
         0d:08:b7:c1:d0:eb:7c:86:37:a3:81:22:23:68:69:9b:47:b8:
         ea:1d:15:f3:9e:d1:c9:a6:91:9a:a7:73:d2:0b:9d:a2:54:4e:
         5f:51:59:b7:0c:78:a5:6f:5c:93:bf:ab:9a:3c:7f:87:bb:f8:
         3a:15:40:ad:35:2b:6a:d6:5a:a8:47:d9:82:7e:00:7c:1b:24:
         bb:86:a1:22:f2:3e:9f:c0:71:35:11:31:51:45:b3:a6:29:fe:
         57:2b:26:12:1b:50:28:97:c2:0f:b8:c3:9b:06:69:87:8d:0e:
         46:4f:4d:e0:fa:17:6e:4f:89:be:f6:37:13:8c:17:cc:7b:51:
         5a:33:28:c0:63:c8:e8:92:c9:50:87:d1:b5:61:5c:7c:55:f6:
         1b:cc:14:1b:1d:e0:5f:66:70:c6:4c:25:bb:6d:b4:79:62:1f:
         7d:a1:4d:99:27:3e:62:66:28:14:bc:1b:bc:70:94:7e:09:25:
         0a:a0:9b:96:cf:ad:43:3d:66:e1:74:c6:e3:bb:42:2c:11:9d:
         53:ca:58:c2:14:09:b0:90:08:38:f8:9c:04:d0:63:2d:15:72:
         83:2f:91:26:2f:d0:ae:3a:6f:02:ad:11:57:da:4f:82:ba:c9:
         72:72:53:fd
-----BEGIN CERTIFICATE-----
MIIECTCCAvGgAwIBAgIEEAAA1DANBgkqhkiG9w0BAQsFADBEMQswCQYDVQQGEwJE
RTEPMA0GA1UECAwGSGVzc2VuMRQwEgYDVQQKDAtwcml2YWN5aWRlYTEOMAwGA1UE
AwwFQ0EwMDEwHhcNMTcxMjE5MjAyMzA3WhcNMjAwMTA4MjAyMzA3WjA3MRMwEQYD
VQQDDApTdGV2ZSBUZXN0MSAwHgYJKoZIhvcNAQkBFhFzdGV2ZUBvcGVuc3NsLm9y
ZzCCASIwDQYJKoZIhvcNAQEBBQADggEPADCCAQoCggEBANKBiSBRSA9z9BEyJNUf
HP1c9bbmxfBSgdzSr2ZKfJMxYVyv0W0GcANgfHIMiN1JzZ4CbNJa11MP89q+aWS1
DwwA47NQR6Ozm7oTUNZYWkurOeARygonZwN4ImZtkh4bXEmu5mvRjjudBtPGrE1T
QxCr6JbBh4KXmY8g05kSNzGE4Yr/KQNfIpA+f5vgIMGt3K5MORoxlhcCjLLZtA0g
Ept9hlT9M/3BKmJG+GCWz24BbyLfE0fnl+wFciOjYvj676yccvA3yy83z5CoJ1GG
xtd4CI9+JaIVcKL7HLYVXqCXi4FMCSiKJzuUvHHbW3E3misW4G+1yfVLTyC6Zc+v
ra0CAwEAAaOCAQ4wggEKMAsGA1UdDwQEAwIFoDAJBgNVHRMEAjAAMBEGCWCGSAGG
+EIBAQQEAwIGQDAzBglghkgBhvhCAQ0EJhYkT3BlblNTTCBHZW5lcmF0ZWQgU2Vy
dmVyIENlcnRpZmljYXRlMB0GA1UdDgQWBBTlJW0+rw3dP0zyRRk51RTbfpzArTB0
BgNVHSMEbTBrgBT0p8DMkUavZPOR8if4yLJviocyc6FIpEYwRDELMAkGA1UEBhMC
REUxDzANBgNVBAgMBkhlc3NlbjEUMBIGA1UECgwLcHJpdmFjeWlkZWExDjAMBgNV
BAMMBUNBMDAxggkA+8jrrIPNEgcwEwYDVR0lBAwwCgYIKwYBBQUHAwEwDQYJKoZI
hvcNAQELBQADggEBAMCPf4w0p6/e/AGMC9hfddfykA0It8HQ63yGN6OBIiNoaZtH
uOodFfOe0cmmkZqnc9ILnaJUTl9RWbcMeKVvXJO/q5o8f4e7+DoVQK01K2rWWqhH
2YJ+AHwbJLuGoSLyPp/AcTURMVFFs6Yp/lcrJhIbUCiXwg+4w5sGaYeNDkZPTeD6
F25Pib72NxOMF8x7UVozKMBjyOiSyVCH0bVhXHxV9hvMFBsd4F9mcMZMJbtttHli
H32hTZknPmJmKBS8G7xwlH4JJQqgm5bPrUM9ZuF0xuO7QiwRnVPKWMIUCbCQCDj4
nATQYy0VcoMvkSYv0K46bwKtEVfaT4K6yXJyU/0=
-----END CERTIFICATE-----
