Certificate:
    Data:
        Version: 3 (0x2)
        Serial Number: 268435665 (0x100000d1)
    Signature Algorithm: sha256WithRSAEncryption
        Issuer: C=DE, ST=Hessen, O=privacyidea, CN=CA001
        Validity
            Not Before: Dec 19 20:23:06 2017 GMT
            Not After : Dec 19 20:23:06 2018 GMT
        Subject: C=DE, ST=Hessen, O=privacyidea, CN=requester.localdomain
        Subject Public Key Info:
            Public Key Algorithm: rsaEncryption
                Public-Key: (2048 bit)
                Modulus:
                    00:cd:be:14:4f:fa:ce:01:3f:42:22:1b:1d:9c:af:
                    dd:92:d2:7f:db:6c:b7:3e:39:43:43:6b:13:03:f1:
                    05:f4:07:74:bc:76:69:28:0b:af:19:8e:d7:fc:e3:
                    cd:c6:58:f2:ca:7f:08:6d:53:fc:07:02:44:24:c6:
                    b4:34:4c:8c:04:fe:33:0e:40:e2:20:ba:02:73:5a:
                    f7:f5:4f:63:6e:cc:c6:b6:df:54:1d:37:39:7d:51:
                    36:26:5f:bd:dc:3f:a8:8b:6b:a2:ae:b6:9d:d6:21:
                    e7:df:41:b8:7a:28:2a:68:48:ca:a8:2d:ed:e1:e9:
                    46:5e:5a:72:6d:b4:84:38:87:91:fd:94:11:0b:28:
                    84:c6:c2:2f:2a:fb:01:f9:36:7a:09:75:d1:33:88:
                    3c:73:41:5b:c8:bf:94:89:70:a1:f0:c0:b9:2e:50:
                    53:1e:b1:17:64:69:f4:2d:81:e0:a9:0d:0e:32:e9:
                    ba:55:8a:85:f1:1b:6f:49:79:b4:7f:88:c3:0d:3e:
                    54:88:9b:3d:1f:38:8c:04:f3:ee:6a:63:2b:f5:c6:
                    db:b4:83:aa:c4:78:41:3a:7d:4b:e1:c8:3e:71:ca:
                    1b:61:59:ea:c6:c4:ca:32:5e:c9:e9:bf:12:29:e6:
                    c6:c3:63:fe:a0:55:da:7a:f1:60:98:4d:26:ed:fa:
                    70:2d
                Exponent: 65537 (0x10001)
        X509v3 extensions:
            X509v3 Key Usage: 
                Digital Signature, Key Encipherment
            X509v3 Basic Constraints: 
                CA:FALSE
            Netscape Cert Type: 
                SSL Server
            Netscape Comment: 
                OpenSSL Generated Server Certificate
            X509v3 Subject Key Identifier: 
                53:3F:ED:5D:09:07:B3:65:7B:AB:45:C9:24:5B:09:77:80:0A:96:ED
            X509v3 Authority Key Identifier: 
                keyid:F4:A7:C0:CC:91:46:AF:64:F3:91:F2:27:F8:C8:B2:6F:8A:87:32:73
                DirName:/C=DE/ST=Hessen/O=privacyidea/CN=CA001
                serial:FB:C8:EB:AC:83:CD:12:07

            X509v3 Extended Key Usage: 
                TLS Web Server Authentication
    Signature Algorithm: sha256WithRSAEncryption
         89:84:02:7e:4f:11:36:d4:0e:f1:7e:98:7c:86:6d:be:31:3d:
         0d:43:0e:bc:67:10:97:51:cf:47:3d:eb:24:23:f2:71:de:b8:
         05:2d:ae:6e:57:02:42:c6:26:e5:f8:aa:74:34:c2:62:c8:c3:
         97:81:72:71:8e:6f:fa:91:9a:f3:50:92:8a:eb:70:88:01:80:
         c6:1e:66:84:03:d9:6f:97:48:97:d4:5f:7c:01:76:ed:c1:c4:
         28:fb:9f:2e:67:f2:2d:af:50:9e:c2:a8:20:69:ae:15:6a:9d:
         7b:18:cf:4a:8f:b1:7f:6e:db:4f:c2:7d:73:c1:5c:ff:b0:0b:
         aa:5b:4b:a5:c1:66:26:83:f5:1e:b6:b5:3b:b5:61:50:25:d8:
         6c:09:02:9b:c0:76:8a:20:72:ea:b4:f3:72:6e:77:ae:ab:e3:
         e3:2d:38:81:d5:b0:16:28:00:cd:54:7d:29:07:ca:c7:bb:03:
         c9:87:08:aa:41:ae:c6:a8:a2:10:9d:78:2b:d1:b4:1f:4e:5a:
         23:1e:b4:e8:c6:08:e1:0f:9f:94:18:9a:ad:c4:ff:25:d6:41:
         8c:74:5d:13:bf:f5:ec:3e:46:c1:fc:62:59:ba:10:d8:38:64:
         50:23:94:5d:1e:0f:27:ad:83:e3:bb:e4:95:b0:4b:2f:04:3a:
         aa:1b:8d:81
-----BEGIN CERTIFICATE-----
MIIEJjCCAw6gAwIBAgIEEAAA0TANBgkqhkiG9w0BAQsFADBEMQswCQYDVQQGEwJE
RTEPMA0GA1UECAwGSGVzc2VuMRQwEgYDVQQKDAtwcml2YWN5aWRlYTEOMAwGA1UE
AwwFQ0EwMDEwHhcNMTcxMjE5MjAyMzA2WhcNMTgxMjE5MjAyMzA2WjBUMQswCQYD
VQQGEwJERTEPMA0GA1UECAwGSGVzc2VuMRQwEgYDVQQKDAtwcml2YWN5aWRlYTEe
MBwGA1UEAwwVcmVxdWVzdGVyLmxvY2FsZG9tYWluMIIBIjANBgkqhkiG9w0BAQEF
AAOCAQ8AMIIBCgKCAQEAzb4UT/rOAT9CIhsdnK/dktJ/22y3PjlDQ2sTA/EF9Ad0
vHZpKAuvGY7X/OPNxljyyn8IbVP8BwJEJMa0NEyMBP4zDkDiILoCc1r39U9jbszG
tt9UHTc5fVE2Jl+93D+oi2uirrad1iHn30G4eigqaEjKqC3t4elGXlpybbSEOIeR
/ZQRCyiExsIvKvsB+TZ6CXXRM4g8c0FbyL+UiXCh8MC5LlBTHrEXZGn0LYHgqQ0O
Mum6VYqF8RtvSXm0f4jDDT5UiJs9HziMBPPuamMr9cbbtIOqxHhBOn1L4cg+ccob
YVnqxsTKMl7J6b8SKebGw2P+oFXaevFgmE0m7fpwLQIDAQABo4IBDjCCAQowCwYD
VR0PBAQDAgWgMAkGA1UdEwQCMAAwEQYJYIZIAYb4QgEBBAQDAgZAMDMGCWCGSAGG
+EIBDQQmFiRPcGVuU1NMIEdlbmVyYXRlZCBTZXJ2ZXIgQ2VydGlmaWNhdGUwHQYD
VR0OBBYEFFM/7V0JB7Nle6tFySRbCXeACpbtMHQGA1UdIwRtMGuAFPSnwMyRRq9k
85HyJ/jIsm+KhzJzoUikRjBEMQswCQYDVQQGEwJERTEPMA0GA1UECAwGSGVzc2Vu
MRQwEgYDVQQKDAtwcml2YWN5aWRlYTEOMAwGA1UEAwwFQ0EwMDGCCQD7yOusg80S
BzATBgNVHSUEDDAKBggrBgEFBQcDATANBgkqhkiG9w0BAQsFAAOCAQEAiYQCfk8R
NtQO8X6YfIZtvjE9DUMOvGcQl1HPRz3rJCPycd64BS2ublcCQsYm5fiqdDTCYsjD
l4FycY5v+pGa81CSiutwiAGAxh5mhAPZb5dIl9RffAF27cHEKPufLmfyLa9QnsKo
IGmuFWqdexjPSo+xf27bT8J9c8Fc/7ALqltLpcFmJoP1Hra1O7VhUCXYbAkCm8B2
iiBy6rTzcm53rqvj4y04gdWwFigAzVR9KQfKx7sDyYcIqkGuxqiiEJ14K9G0H05a
Ix606MYI4Q+flBiarcT/JdZBjHRdE7/17D5GwfxiWboQ2DhkUCOUXR4PJ62D47vk
lbBLLwQ6qhuNgQ==
-----END CERTIFICATE-----
