Certificate:
    Data:
        Version: 3 (0x2)
        Serial Number: 268435671 (0x100000d7)
    Signature Algorithm: sha256WithRSAEncryption
        Issuer: C=DE, ST=Hessen, O=privacyidea, CN=CA001
        Validity
            Not Before: Dec 19 20:34:52 2017 GMT
            Not After : Dec 19 20:34:52 2018 GMT
        Subject: CN=selfservice,CN=user,O=realm1/emailAddress=meine
        Subject Public Key Info:
            Public Key Algorithm: rsaEncryption
                Public-Key: (2048 bit)
                Modulus:
                    00:cf:3c:d4:33:0e:12:c4:e6:da:cd:b6:56:a1:1c:
                    26:bb:26:1c:8a:4a:73:a8:58:8a:b6:1e:b3:8b:99:
                    d2:1d:07:c2:92:89:79:c0:69:d8:c8:df:28:61:98:
                    1e:b3:fe:ae:2b:bd:78:a9:f7:6e:47:dc:a3:a0:16:
                    8c:85:02:c1:4e:92:fd:72:6e:f0:c8:03:29:9b:b8:
                    00:6e:c0:83:95:c8:34:20:36:9c:b3:e5:e4:e6:76:
                    73:a3:1a:ad:40:96:e0:53:54:00:ec:76:79:9a:c6:
                    0d:7e:b6:bd:29:ec:83:f3:cb:89:a4:cb:6c:00:ba:
                    0c:c5:78:0f:ff:69:b8:94:f4:04:70:43:3f:d8:9e:
                    d7:a7:fb:5d:ce:75:8e:da:e7:c4:07:b1:9d:de:6f:
                    88:4b:b6:4d:9a:cf:f9:bc:fa:9f:cd:32:6d:f6:3a:
                    0b:0d:23:42:78:ec:97:42:bf:0e:4d:60:56:e1:d3:
                    02:f2:19:cb:84:57:90:e5:70:a1:a2:83:35:86:e2:
                    da:86:9f:f9:8a:c4:79:b3:52:28:da:cb:bb:34:ca:
                    d3:da:91:4a:cf:8d:76:a2:b2:6b:9b:f9:96:fd:09:
                    2a:da:11:23:4d:f0:cb:d6:b2:b1:0e:12:6c:9a:19:
                    65:98:87:ca:e4:ee:24:ce:44:ac:90:8f:9d:1b:c5:
                    2a:9d
                Exponent: 65537 (0x10001)
        X509v3 extensions:
            X509v3 Key Usage: 
                Digital Signature, Key Encipherment
            X509v3 Basic Constraints: 
                CA:FALSE
            Netscape Cert Type: 
                SSL Server
            Netscape Comment: 
                OpenSSL Generated Server Certificate
            X509v3 Subject Key Identifier: 
                4D:07:90:AD:FF:1D:0D:E7:1A:DD:D6:2E:FA:BA:34:CB:AA:1F:24:C6
            X509v3 Authority Key Identifier: 
                keyid:F4:A7:C0:CC:91:46:AF:64:F3:91:F2:27:F8:C8:B2:6F:8A:87:32:73
                DirName:/C=DE/ST=Hessen/O=privacyidea/CN=CA001
                serial:FB:C8:EB:AC:83:CD:12:07

            X509v3 Extended Key Usage: 
                TLS Web Server Authentication
    Signature Algorithm: sha256WithRSAEncryption
         ab:9e:f3:cb:68:b9:5d:c9:2a:89:5c:6d:fc:7f:22:bd:de:0c:
         e7:35:c2:f2:c5:ab:63:42:8e:a0:13:25:9c:c3:d3:d0:6f:d5:
         90:56:9c:8a:5d:a0:5b:f7:71:4f:f8:c9:ce:93:d0:53:9d:c7:
         cb:5d:4a:0b:a9:21:b9:6a:cd:40:dd:3a:20:34:fc:b7:6f:83:
         b0:4e:01:ec:a6:90:bb:af:0a:d4:15:7c:26:3d:a1:10:58:e3:
         44:fc:b5:05:37:a6:55:72:ec:a4:5c:68:d8:da:ea:f8:dd:18:
         2f:69:06:41:c6:3d:b2:e9:64:03:e4:33:db:b0:57:64:79:9d:
         3e:f7:b8:5e:6e:5a:63:c1:b8:35:7f:d7:bd:3b:59:bd:6f:cc:
         e0:27:b6:c2:85:04:14:10:f3:9d:71:66:bc:55:d2:5f:7a:2b:
         ca:cf:ee:16:52:fc:bd:65:18:6f:a7:57:cd:23:f2:20:18:f3:
         a1:39:44:a6:bd:e8:94:2c:92:00:43:52:c1:f5:9e:4b:19:b2:
         9d:f9:10:b8:d6:5e:b2:65:0d:35:12:db:68:04:f5:f3:b8:6e:
         04:70:2b:61:ab:16:1b:e3:6d:10:22:76:35:62:06:e4:45:3a:
         7a:1e:82:7e:ea:4b:d4:05:c2:dc:85:30:8d:0c:d0:6c:6f:70:
         ab:b6:36:5c
-----BEGIN CERTIFICATE-----
MIIEDzCCAvegAwIBAgIEEAAA1zANBgkqhkiG9w0BAQsFADBEMQswCQYDVQQGEwJE
RTEPMA0GA1UECAwGSGVzc2VuMRQwEgYDVQQKDAtwcml2YWN5aWRlYTEOMAwGA1UE
AwwFQ0EwMDEwHhcNMTcxMjE5MjAzNDUyWhcNMTgxMjE5MjAzNDUyWjA9MSUwIwYD
VQQDDBxzZWxmc2VydmljZSxDTj11c2VyLE89cmVhbG0xMRQwEgYJKoZIhvcNAQkB
FgVtZWluZTCCASIwDQYJKoZIhvcNAQEBBQADggEPADCCAQoCggEBAM881DMOEsTm
2s22VqEcJrsmHIpKc6hYirYes4uZ0h0HwpKJecBp2MjfKGGYHrP+riu9eKn3bkfc
o6AWjIUCwU6S/XJu8MgDKZu4AG7Ag5XINCA2nLPl5OZ2c6MarUCW4FNUAOx2eZrG
DX62vSnsg/PLiaTLbAC6DMV4D/9puJT0BHBDP9ie16f7Xc51jtrnxAexnd5viEu2
TZrP+bz6n80ybfY6Cw0jQnjsl0K/Dk1gVuHTAvIZy4RXkOVwoaKDNYbi2oaf+YrE
ebNSKNrLuzTK09qRSs+NdqKya5v5lv0JKtoRI03wy9aysQ4SbJoZZZiHyuTuJM5E
rJCPnRvFKp0CAwEAAaOCAQ4wggEKMAsGA1UdDwQEAwIFoDAJBgNVHRMEAjAAMBEG
CWCGSAGG+EIBAQQEAwIGQDAzBglghkgBhvhCAQ0EJhYkT3BlblNTTCBHZW5lcmF0
ZWQgU2VydmVyIENlcnRpZmljYXRlMB0GA1UdDgQWBBRNB5Ct/x0N5xrd1i76ujTL
qh8kxjB0BgNVHSMEbTBrgBT0p8DMkUavZPOR8if4yLJviocyc6FIpEYwRDELMAkG
A1UEBhMCREUxDzANBgNVBAgMBkhlc3NlbjEUMBIGA1UECgwLcHJpdmFjeWlkZWEx
DjAMBgNVBAMMBUNBMDAxggkA+8jrrIPNEgcwEwYDVR0lBAwwCgYIKwYBBQUHAwEw
DQYJKoZIhvcNAQELBQADggEBAKue88touV3JKolcbfx/Ir3eDOc1wvLFq2NCjqAT
JZzD09Bv1ZBWnIpdoFv3cU/4yc6T0FOdx8tdSgupIblqzUDdOiA0/Ldvg7BOAeym
kLuvCtQVfCY9oRBY40T8tQU3plVy7KRcaNja6vjdGC9pBkHGPbLpZAPkM9uwV2R5
nT73uF5uWmPBuDV/1707Wb1vzOAntsKFBBQQ851xZrxV0l96K8rP7hZS/L1lGG+n
V80j8iAY86E5RKa96JQskgBDUsH1nksZsp35ELjWXrJlDTUS22gE9fO4bgRwK2Gr
FhvjbRAidjViBuRFOnoegn7qS9QFwtyFMI0M0GxvcKu2Nlw=
-----END CERTIFICATE-----
