Certificate:
    Data:
        Version: 3 (0x2)
        Serial Number: 268435670 (0x100000d6)
    Signature Algorithm: sha256WithRSAEncryption
        Issuer: C=DE, ST=Hessen, O=privacyidea, CN=CA001
        Validity
            Not Before: Dec 19 20:26:39 2017 GMT
            Not After : Dec 19 20:26:39 2018 GMT
        Subject: OU=realm1, CN=cornelius/emailAddress=user@localhost.localdomain
        Subject Public Key Info:
            Public Key Algorithm: rsaEncryption
                Public-Key: (2048 bit)
                Modulus:
                    00:e2:81:15:e2:bf:63:d2:22:d9:02:c3:f5:3d:68:
                    ac:c6:70:af:1e:c1:f0:07:a8:ea:e5:5c:ba:aa:c7:
                    6d:19:64:ae:c4:7d:79:9c:95:92:f7:07:aa:ec:e1:
                    51:1d:ec:1e:1e:f5:66:d6:4e:35:31:39:e2:bd:62:
                    cc:ef:64:6c:7d:30:be:0d:70:ee:83:2c:86:ff:49:
                    82:83:8b:bc:e9:e1:45:e6:7f:56:ad:98:96:12:61:
                    88:e4:59:bf:ad:f4:c5:2d:45:f5:a2:13:df:7f:c4:
                    eb:b6:5f:c4:8d:b8:59:d0:5c:55:f4:a0:5f:86:dc:
                    43:c6:ff:75:5a:14:99:d0:4d:80:32:37:cc:4b:38:
                    51:e4:fb:53:da:43:e2:60:9b:07:58:f6:51:07:51:
                    73:d7:b0:8c:c3:de:72:aa:31:03:98:99:28:96:cb:
                    df:89:fa:b0:2d:59:0e:f4:d0:fc:4b:f7:c8:36:f7:
                    25:e1:4c:12:58:e1:77:cb:ea:c5:5c:8b:44:03:e9:
                    36:4c:8e:75:9e:0c:d7:a4:35:b3:f8:ef:f4:45:59:
                    14:95:23:c7:2a:4e:56:9d:89:12:ae:25:df:18:0b:
                    ac:d3:20:96:63:11:3c:91:09:0a:be:1f:41:06:c6:
                    25:d0:4c:a2:1d:f8:22:a5:c6:98:f8:8c:7c:9d:07:
                    13:15
                Exponent: 65537 (0x10001)
        X509v3 extensions:
            X509v3 Key Usage: 
                Digital Signature, Key Encipherment
            X509v3 Basic Constraints: 
                CA:FALSE
            Netscape Cert Type: 
                SSL Server
            Netscape Comment: 
                OpenSSL Generated Server Certificate
            X509v3 Subject Key Identifier: 
                F7:1D:0A:8A:9F:6E:C4:39:01:25:E1:80:FE:7F:00:67:64:88:EE:74
            X509v3 Authority Key Identifier: 
                keyid:F4:A7:C0:CC:91:46:AF:64:F3:91:F2:27:F8:C8:B2:6F:8A:87:32:73
                DirName:/C=DE/ST=Hessen/O=privacyidea/CN=CA001
                serial:FB:C8:EB:AC:83:CD:12:07

            X509v3 Extended Key Usage: 
                TLS Web Server Authentication
    Signature Algorithm: sha256WithRSAEncryption
         4e:f6:81:d3:8c:23:95:82:cc:b5:31:1a:e7:bc:5c:45:11:a2:
         a9:82:b5:92:73:38:55:6b:a2:28:f1:cb:78:0e:86:72:19:51:
         99:92:38:66:eb:d9:30:f4:8a:a7:d0:48:17:f4:2b:df:99:ab:
         2c:75:c0:9b:71:99:fc:5b:b3:67:09:35:cf:69:36:29:3a:2e:
         00:48:41:8b:e5:a6:05:32:4e:94:18:e9:93:1a:33:39:f9:3f:
         53:bd:ec:05:93:c8:66:b9:94:ca:1e:97:6b:8c:a6:6a:f3:91:
         84:81:ef:65:88:37:85:2c:95:39:ae:87:57:47:0b:26:04:7f:
         1b:aa:8e:25:b1:1e:ba:dd:e1:56:ee:dc:13:86:24:ce:ab:de:
         27:2b:38:83:e4:4d:8e:cf:39:b1:5c:fb:7a:e4:2a:30:5a:21:
         90:6d:5b:09:d9:ed:a0:fb:01:bd:7b:2b:24:99:77:d4:99:51:
         b8:7c:fa:b2:5f:e7:ed:96:4b:6b:d7:26:cc:dc:c2:7d:33:27:
         5a:83:8c:61:8f:a6:9d:f0:bf:50:12:e0:bf:49:c9:db:f9:e2:
         a4:c8:14:04:90:4d:b9:c1:93:3e:72:f2:88:68:aa:22:80:7f:
         d3:b0:fb:d4:75:d8:ee:c3:fc:da:99:61:a8:c7:ad:a5:6c:36:
         68:55:46:b4
-----BEGIN CERTIFICATE-----
MIIEIjCCAwqgAwIBAgIEEAAA1jANBgkqhkiG9w0BAQsFADBEMQswCQYDVQQGEwJE
RTEPMA0GA1UECAwGSGVzc2VuMRQwEgYDVQQKDAtwcml2YWN5aWRlYTEOMAwGA1UE
AwwFQ0EwMDEwHhcNMTcxMjE5MjAyNjM5WhcNMTgxMjE5MjAyNjM5WjBQMQ8wDQYD
VQQLDAZyZWFsbTExEjAQBgNVBAMMCWNvcm5lbGl1czEpMCcGCSqGSIb3DQEJARYa
dXNlckBsb2NhbGhvc3QubG9jYWxkb21haW4wggEiMA0GCSqGSIb3DQEBAQUAA4IB
DwAwggEKAoIBAQDigRXiv2PSItkCw/U9aKzGcK8ewfAHqOrlXLqqx20ZZK7EfXmc
lZL3B6rs4VEd7B4e9WbWTjUxOeK9YszvZGx9ML4NcO6DLIb/SYKDi7zp4UXmf1at
mJYSYYjkWb+t9MUtRfWiE99/xOu2X8SNuFnQXFX0oF+G3EPG/3VaFJnQTYAyN8xL
OFHk+1PaQ+JgmwdY9lEHUXPXsIzD3nKqMQOYmSiWy9+J+rAtWQ700PxL98g29yXh
TBJY4XfL6sVci0QD6TZMjnWeDNekNbP47/RFWRSVI8cqTladiRKuJd8YC6zTIJZj
ETyRCQq+H0EGxiXQTKId+CKlxpj4jHydBxMVAgMBAAGjggEOMIIBCjALBgNVHQ8E
BAMCBaAwCQYDVR0TBAIwADARBglghkgBhvhCAQEEBAMCBkAwMwYJYIZIAYb4QgEN
BCYWJE9wZW5TU0wgR2VuZXJhdGVkIFNlcnZlciBDZXJ0aWZpY2F0ZTAdBgNVHQ4E
FgQU9x0Kip9uxDkBJeGA/n8AZ2SI7nQwdAYDVR0jBG0wa4AU9KfAzJFGr2TzkfIn
+Miyb4qHMnOhSKRGMEQxCzAJBgNVBAYTAkRFMQ8wDQYDVQQIDAZIZXNzZW4xFDAS
BgNVBAoMC3ByaXZhY3lpZGVhMQ4wDAYDVQQDDAVDQTAwMYIJAPvI66yDzRIHMBMG
A1UdJQQMMAoGCCsGAQUFBwMBMA0GCSqGSIb3DQEBCwUAA4IBAQBO9oHTjCOVgsy1
MRrnvFxFEaKpgrWSczhVa6Io8ct4DoZyGVGZkjhm69kw9Iqn0EgX9CvfmassdcCb
cZn8W7NnCTXPaTYpOi4ASEGL5aYFMk6UGOmTGjM5+T9TvewFk8hmuZTKHpdrjKZq
85GEge9liDeFLJU5rodXRwsmBH8bqo4lsR663eFW7twThiTOq94nKziD5E2Ozzmx
XPt65CowWiGQbVsJ2e2g+wG9eyskmXfUmVG4fPqyX+ftlktr1ybM3MJ9Mydag4xh
j6ad8L9QEuC/Scnb+eKkyBQEkE25wZM+cvKIaKoigH/TsPvUddjuw/zamWGox62l
bDZoVUa0
-----END CERTIFICATE-----
