Certificate:
    Data:
        Version: 3 (0x2)
        Serial Number: 268435666 (0x100000d2)
    Signature Algorithm: sha256WithRSAEncryption
        Issuer: C=DE, ST=Hessen, O=privacyidea, CN=CA001
        Validity
            Not Before: Dec 19 20:23:07 2017 GMT
            Not After : Dec 19 20:23:07 2018 GMT
        Subject: C=DE, ST=Hessen, O=privacyidea, CN=usercert
        Subject Public Key Info:
            Public Key Algorithm: rsaEncryption
                Public-Key: (2048 bit)
                Modulus:
                    00:dc:2f:d1:5f:29:97:d4:7c:c3:53:c8:30:bd:4b:
                    67:70:2c:24:6b:b8:5e:eb:21:7a:48:12:56:7c:81:
                    5c:48:75:b6:68:eb:f6:f2:98:4e:50:51:d1:7f:6c:
                    73:f3:0a:a7:ae:be:48:5e:e5:d6:e1:d9:2a:7c:32:
                    6e:4e:fd:08:f6:5a:54:49:23:73:c3:b9:07:18:d1:
                    ef:b3:ac:f8:8a:dc:94:96:a4:90:3a:8e:74:df:e6:
                    0d:37:1b:bd:5b:b7:25:1a:56:39:da:6f:91:aa:5e:
                    1c:74:f3:f9:7c:14:01:83:12:65:76:c7:bb:fe:36:
                    5b:95:e9:72:65:83:ed:3e:98:30:71:fa:87:dd:a3:
                    36:5a:30:03:2e:26:e0:61:d1:bf:02:3f:b6:06:1f:
                    4a:89:28:1c:5c:a2:ff:4e:be:94:e6:8c:e0:da:82:
                    f1:9d:29:32:48:30:73:b4:04:f6:42:1e:be:f7:e2:
                    32:32:27:3c:9d:89:2f:70:3e:85:9a:6f:5c:c5:09:
                    c0:8c:32:2f:72:22:c9:d2:95:1f:b6:ac:72:60:72:
                    b7:82:4d:6b:ce:5b:e3:00:d0:d2:2f:58:c6:e0:10:
                    e5:51:ca:4d:3b:2e:e6:7e:ab:84:d6:56:f1:93:35:
                    a0:93:64:26:81:75:2f:91:b5:16:06:38:0b:db:cc:
                    2d:07
                Exponent: 65537 (0x10001)
        X509v3 extensions:
            X509v3 Key Usage: 
                Digital Signature, Key Encipherment
            X509v3 Basic Constraints: 
                CA:FALSE
            Netscape Cert Type: 
                SSL Server
            Netscape Comment: 
                OpenSSL Generated Server Certificate
            X509v3 Subject Key Identifier: 
                FC:14:D1:F0:4B:8D:00:90:F2:F5:B8:71:9E:4E:97:C3:92:54:AD:0B
            X509v3 Authority Key Identifier: 
                keyid:F4:A7:C0:CC:91:46:AF:64:F3:91:F2:27:F8:C8:B2:6F:8A:87:32:73
                DirName:/C=DE/ST=Hessen/O=privacyidea/CN=CA001
                serial:FB:C8:EB:AC:83:CD:12:07

            X509v3 Extended Key Usage: 
                TLS Web Server Authentication
    Signature Algorithm: sha256WithRSAEncryption
         62:73:f1:9a:9a:30:95:4c:2a:65:7c:03:f6:f0:eb:50:2d:ee:
         ad:75:90:a9:2a:bb:2d:3d:24:7a:d0:04:c1:6b:e7:d5:fb:64:
         f7:ed:65:3c:58:ed:d8:80:bf:4e:f7:85:f0:08:60:ac:8f:86:
         6e:da:9b:f4:34:25:05:f7:b8:dd:5f:d4:f9:b7:a5:2a:9b:9e:
         57:c8:69:11:52:3e:34:43:90:1d:2a:c4:53:1c:56:5b:97:3d:
         8b:ba:a8:e9:5f:5f:e4:35:d8:43:cf:67:c1:ae:59:fa:f7:e6:
         d2:b8:ae:97:ae:c1:79:26:7e:68:27:28:5c:04:6a:a8:50:43:
         97:bd:93:f3:a9:42:85:81:07:5b:8b:c6:0d:f0:62:d3:a9:55:
         a1:36:de:37:bd:16:15:e6:a6:60:36:f5:7f:60:4d:7d:10:35:
         d6:04:47:38:cc:0f:01:b8:d9:af:4d:ac:ff:76:4b:3c:3b:de:
         10:70:7e:58:7c:fd:eb:05:86:22:b1:0e:0d:1f:5c:3f:62:a3:
         74:aa:7a:80:a0:e0:d2:81:90:ad:d9:68:9e:18:40:69:42:90:
         1f:0f:c9:32:76:39:c5:b8:a5:1a:6a:f0:4f:64:e7:96:14:50:
         a7:74:dc:70:7f:72:d6:2f:2c:ab:47:42:26:0d:d9:70:7c:8a:
         c1:e9:8d:11
-----BEGIN CERTIFICATE-----
MIIEGTCCAwGgAwIBAgIEEAAA0jANBgkqhkiG9w0BAQsFADBEMQswCQYDVQQGEwJE
RTEPMA0GA1UECAwGSGVzc2VuMRQwEgYDVQQKDAtwcml2YWN5aWRlYTEOMAwGA1UE
AwwFQ0EwMDEwHhcNMTcxMjE5MjAyMzA3WhcNMTgxMjE5MjAyMzA3WjBHMQswCQYD
VQQGEwJERTEPMA0GA1UECAwGSGVzc2VuMRQwEgYDVQQKDAtwcml2YWN5aWRlYTER
MA8GA1UEAwwIdXNlcmNlcnQwggEiMA0GCSqGSIb3DQEBAQUAA4IBDwAwggEKAoIB
AQDcL9FfKZfUfMNTyDC9S2dwLCRruF7rIXpIElZ8gVxIdbZo6/bymE5QUdF/bHPz
Cqeuvkhe5dbh2Sp8Mm5O/Qj2WlRJI3PDuQcY0e+zrPiK3JSWpJA6jnTf5g03G71b
tyUaVjnab5GqXhx08/l8FAGDEmV2x7v+NluV6XJlg+0+mDBx+ofdozZaMAMuJuBh
0b8CP7YGH0qJKBxcov9OvpTmjODagvGdKTJIMHO0BPZCHr734jIyJzydiS9wPoWa
b1zFCcCMMi9yIsnSlR+2rHJgcreCTWvOW+MA0NIvWMbgEOVRyk07LuZ+q4TWVvGT
NaCTZCaBdS+RtRYGOAvbzC0HAgMBAAGjggEOMIIBCjALBgNVHQ8EBAMCBaAwCQYD
VR0TBAIwADARBglghkgBhvhCAQEEBAMCBkAwMwYJYIZIAYb4QgENBCYWJE9wZW5T
U0wgR2VuZXJhdGVkIFNlcnZlciBDZXJ0aWZpY2F0ZTAdBgNVHQ4EFgQU/BTR8EuN
AJDy9bhxnk6Xw5JUrQswdAYDVR0jBG0wa4AU9KfAzJFGr2TzkfIn+Miyb4qHMnOh
SKRGMEQxCzAJBgNVBAYTAkRFMQ8wDQYDVQQIDAZIZXNzZW4xFDASBgNVBAoMC3By
aXZhY3lpZGVhMQ4wDAYDVQQDDAVDQTAwMYIJAPvI66yDzRIHMBMGA1UdJQQMMAoG
CCsGAQUFBwMBMA0GCSqGSIb3DQEBCwUAA4IBAQBic/GamjCVTCplfAP28OtQLe6t
dZCpKrstPSR60ATBa+fV+2T37WU8WO3YgL9O94XwCGCsj4Zu2pv0NCUF97jdX9T5
t6Uqm55XyGkRUj40Q5AdKsRTHFZblz2LuqjpX1/kNdhDz2fBrln69+bSuK6XrsF5
Jn5oJyhcBGqoUEOXvZPzqUKFgQdbi8YN8GLTqVWhNt43vRYV5qZgNvV/YE19EDXW
BEc4zA8BuNmvTaz/dks8O94QcH5YfP3rBYYisQ4NH1w/YqN0qnqAoODSgZCt2Wie
GEBpQpAfD8kydjnFuKUaavBPZOeWFFCndNxwf3LWLyyrR0ImDdlwfIrB6Y0R
-----END CERTIFICATE-----
