(i__main__
AhoCorasick
p1
(dp2
S'goto'
p3
(dp4
S'root'
p5
(dp6
S'i'
(dp7
S'status'
p8
I10
sS's'
(dp9
g8
I11
sS'red'
p10
I-1
sssS'h'
(dp11
g8
I1
sS'i'
(dp12
g8
I6
sS's'
(dp13
g8
I7
sg10
I-1
sssS'e'
(dp14
g8
I2
sS'r'
(dp15
g8
I8
sS's'
(dp16
g8
I9
sg10
I-1
sssg10
I-1
sssS's'
(dp17
g8
I3
sS'h'
(dp18
g8
I4
sS'e'
(dp19
g8
I5
sg10
I-1
ssssg8
I0
sssS'child_tree'
p20
(dp21
I0
g6
sI1
g11
sI2
g14
sI3
g17
sI4
g18
sI5
g19
sI6
g12
sI7
g13
sI8
g15
sI9
g16
sI10
g7
sI11
g9
ssS'failure'
p22
(dp23
I0
I0
sI1
I0
sI2
I0
sI3
I0
sI4
I1
sI5
I2
sI6
I10
sI7
I11
sI8
I0
sI9
I3
sI10
I0
sI11
I3
ssS'model_path'
p24
S'./model/'
p25
sS'keywords'
p26
(lp27
S'he'
p28
aS'she'
p29
aS'his'
p30
aS'hers'
p31
aS'is'
p32
asS'output'
p33
(dp34
I9
(lp35
g31
asI2
(lp36
g28
asI11
(lp37
g32
asI5
(lp38
g29
ag28
asI7
(lp39
g30
ag32
assb.